ARM GAS  C:\Users\Reza\AppData\Local\Temp\ccxQuLch.s 			page 1


   1              		.syntax unified
   2              		.cpu cortex-m3
   3              		.fpu softvfp
   4              		.eabi_attribute 20, 1
   5              		.eabi_attribute 21, 1
   6              		.eabi_attribute 23, 3
   7              		.eabi_attribute 24, 1
   8              		.eabi_attribute 25, 1
   9              		.eabi_attribute 26, 1
  10              		.eabi_attribute 30, 1
  11              		.eabi_attribute 34, 1
  12              		.eabi_attribute 18, 4
  13              		.thumb
  14              		.syntax unified
  15              		.file	"led.c"
  16              		.text
  17              	.Ltext0:
  18              		.cfi_sections	.debug_frame
  19              		.section	.text.LED_Set,"ax",%progbits
  20              		.align	2
  21              		.global	LED_Set
  22              		.thumb
  23              		.thumb_func
  24              		.type	LED_Set, %function
  25              	LED_Set:
  26              	.LFB115:
  27              		.file 1 "source\\bsw\\led.c"
   1:source\bsw/led.c **** /**
   2:source\bsw/led.c **** * \file <filename>
   3:source\bsw/led.c **** * \author <author-name>
   4:source\bsw/led.c **** * \date <date>
   5:source\bsw/led.c **** *
   6:source\bsw/led.c **** * \brief <Symbolic File name>
   7:source\bsw/led.c **** *
   8:source\bsw/led.c **** * \copyright Copyright ©2016
   9:source\bsw/led.c **** * Department of electrical engineering and information technology, Hochschule Darmstadt - Universit
  10:source\bsw/led.c **** * Permission to use, copy, modify, and distribute this software and its documentation for education
  11:source\bsw/led.c **** * (unless permitted by h_da) and official h_da projects, is hereby granted for enrolled students of
  12:source\bsw/led.c **** * this paragraph and the following paragraph appear in all copies, modifications, and distributions
  13:source\bsw/led.c **** * Contact Prof.Dr.-Ing. Peter Fromm, peter.fromm@h-da.de, Birkenweg 8 64295 Darmstadt - GERMANY for
  14:source\bsw/led.c **** *
  15:source\bsw/led.c **** * \warning This software is a PROTOTYPE version and is not designed or intended for use in producti
  16:source\bsw/led.c **** * The user represents and warrants that it will NOT use or redistribute the Software for such purpo
  17:source\bsw/led.c **** * This prototype is for research purposes only. This software is provided "AS IS," without a warran
  18:source\bsw/led.c **** */
  19:source\bsw/led.c **** 
  20:source\bsw/led.c **** /*****************************************************************************/
  21:source\bsw/led.c **** /* Include files                                                             */
  22:source\bsw/led.c **** /*****************************************************************************/
  23:source\bsw/led.c **** 
  24:source\bsw/led.c **** #include "project.h"
  25:source\bsw/led.c **** #include "led.h"
  26:source\bsw/led.c **** 
  27:source\bsw/led.c **** 
  28:source\bsw/led.c **** /*****************************************************************************/
  29:source\bsw/led.c **** /* Local pre-processor symbols/macros ('#define')                            */
  30:source\bsw/led.c **** /*****************************************************************************/
ARM GAS  C:\Users\Reza\AppData\Local\Temp\ccxQuLch.s 			page 2


  31:source\bsw/led.c **** 
  32:source\bsw/led.c **** /*****************************************************************************/
  33:source\bsw/led.c **** /* Global variable definitions (declared in header file with 'extern')       */
  34:source\bsw/led.c **** /*****************************************************************************/
  35:source\bsw/led.c **** 
  36:source\bsw/led.c **** /*****************************************************************************/
  37:source\bsw/led.c **** /* Local type definitions ('typedef')                                        */
  38:source\bsw/led.c **** /*****************************************************************************/
  39:source\bsw/led.c **** 
  40:source\bsw/led.c **** 
  41:source\bsw/led.c **** 
  42:source\bsw/led.c **** /*****************************************************************************/
  43:source\bsw/led.c **** /* Local variable definitions ('static')                                     */
  44:source\bsw/led.c **** /*****************************************************************************/
  45:source\bsw/led.c **** 
  46:source\bsw/led.c **** 
  47:source\bsw/led.c **** static LED_ONOFF_t LED__state[LED_ALL] = {LED_OFF, LED_OFF, LED_OFF}; /**< On/Off State of the LED,
  48:source\bsw/led.c **** 
  49:source\bsw/led.c **** const static uint16 LED__Pulse_Width[256] = {
  50:source\bsw/led.c ****     0, 1, 1, 1, 1, 1, 1, 1, 1, 2, 2, 2, 2, 2, 2, 2, 2, 2, 2, 2, 2, 3,
  51:source\bsw/led.c ****     3, 3, 3, 3, 3, 3, 4, 4, 4, 4, 4, 4, 5, 5, 5, 5, 5, 6, 6, 6, 6, 7,
  52:source\bsw/led.c ****     7, 7, 8, 8, 8, 9, 9, 10, 10, 10, 11, 11, 12, 12, 13, 13, 14, 15,
  53:source\bsw/led.c ****     15, 16, 17, 17, 18, 19, 20, 21, 22, 23, 24, 25, 26, 27, 28, 29,
  54:source\bsw/led.c ****     31, 32, 33, 35, 36, 38, 40, 41, 43, 45, 47, 49, 52, 54, 56, 59,
  55:source\bsw/led.c ****     61, 64, 67, 70, 73, 76, 79, 83, 87, 91, 95, 99, 103, 108, 112,
  56:source\bsw/led.c ****     117, 123, 128, 134, 140, 146, 152, 159, 166, 173, 181, 189, 197,
  57:source\bsw/led.c ****     206, 215, 225, 235, 245, 256, 267, 279, 292, 304, 318, 332, 347,
  58:source\bsw/led.c ****     362, 378, 395, 412, 431, 450, 470, 490, 512, 535, 558, 583, 609,
  59:source\bsw/led.c ****     636, 664, 693, 724, 756, 790, 825, 861, 899, 939, 981, 1024, 1069,
  60:source\bsw/led.c ****     1117, 1166, 1218, 1272, 1328, 1387, 1448, 1512, 1579, 1649, 1722,
  61:source\bsw/led.c ****     1798, 1878, 1961, 2048, 2139, 2233, 2332, 2435, 2543, 2656, 2773,
  62:source\bsw/led.c ****     2896, 3025, 3158, 3298, 3444, 3597, 3756, 3922, 4096, 4277, 4467,
  63:source\bsw/led.c ****     4664, 4871, 5087, 5312, 5547, 5793, 6049, 6317, 6596, 6889, 7194,
  64:source\bsw/led.c ****     7512, 7845, 8192, 8555, 8933, 9329, 9742, 10173, 10624, 11094,
  65:source\bsw/led.c ****     11585, 12098, 12634, 13193, 13777, 14387, 15024, 15689, 16384,
  66:source\bsw/led.c ****     17109, 17867, 18658, 19484, 20346, 21247, 22188, 23170, 24196,
  67:source\bsw/led.c ****     25267, 26386, 27554, 28774, 30048, 31378, 32768, 34218, 35733,
  68:source\bsw/led.c ****     37315, 38967, 40693, 42494, 44376, 46340, 48392, 50534, 52772,
  69:source\bsw/led.c ****     55108, 57548, 60096, 62757, 65535
  70:source\bsw/led.c **** };
  71:source\bsw/led.c **** 
  72:source\bsw/led.c **** /*****************************************************************************/
  73:source\bsw/led.c **** /* Local function prototypes ('static')                                      */
  74:source\bsw/led.c **** /*****************************************************************************/
  75:source\bsw/led.c **** 
  76:source\bsw/led.c **** /**
  77:source\bsw/led.c ****  * Inverts the parameter
  78:source\bsw/led.c ****  * @param LED_ONOFF_t ledOnOff - Value to be inverted
  79:source\bsw/led.c ****  * @return inverted parameter
  80:source\bsw/led.c ****  */
  81:source\bsw/led.c **** static inline LED_ONOFF_t LED__toggleValue(LED_ONOFF_t ledOnOff);
  82:source\bsw/led.c **** 
  83:source\bsw/led.c **** 
  84:source\bsw/led.c **** /*****************************************************************************/
  85:source\bsw/led.c **** /* Function implementation - global ('extern') and local ('static')          */
  86:source\bsw/led.c **** /*****************************************************************************/
  87:source\bsw/led.c **** 
ARM GAS  C:\Users\Reza\AppData\Local\Temp\ccxQuLch.s 			page 3


  88:source\bsw/led.c **** /**
  89:source\bsw/led.c ****  * Initialises the LED's and turns them off
  90:source\bsw/led.c ****  * @return RC_SUCCESS if function was executed as exepected, other error code in case of error
  91:source\bsw/led.c ****  */
  92:source\bsw/led.c **** RC_t LED_Init()
  93:source\bsw/led.c **** {
  94:source\bsw/led.c ****     RC_t result = RC_SUCCESS;
  95:source\bsw/led.c ****     
  96:source\bsw/led.c ****     for (LED_id_t i = LED_RED; i < LED_ALL; i++)
  97:source\bsw/led.c ****     {
  98:source\bsw/led.c ****         LED__state[i] = OFF;
  99:source\bsw/led.c ****         
 100:source\bsw/led.c ****         RC_t clearResult;
 101:source\bsw/led.c ****         clearResult = LED_Set(i, LED_OFF);
 102:source\bsw/led.c ****         
 103:source\bsw/led.c ****         if (clearResult != RC_SUCCESS)
 104:source\bsw/led.c ****         {
 105:source\bsw/led.c ****             //memorize error
 106:source\bsw/led.c ****             result = clearResult;
 107:source\bsw/led.c ****         }
 108:source\bsw/led.c ****     }
 109:source\bsw/led.c ****     
 110:source\bsw/led.c ****     //Init RGB
 111:source\bsw/led.c ****     RGB_PWM_blue_Start();
 112:source\bsw/led.c ****     RGB_PWM_green_Start();
 113:source\bsw/led.c ****     RGB_PWM_red_Start();
 114:source\bsw/led.c ****     
 115:source\bsw/led.c ****     return result;
 116:source\bsw/led.c **** }
 117:source\bsw/led.c **** 
 118:source\bsw/led.c **** /**
 119:source\bsw/led.c ****  * Sets the required LED
 120:source\bsw/led.c ****  * @param LED_t ledId - Identifier for the LED, ALL will change all LED's
 121:source\bsw/led.c ****  * @param LED_ONOFF_t ledOnOff - Trun the led on or off
 122:source\bsw/led.c ****  * @return RC_SUCCESS if function was executed as exepected, other error code in case of error
 123:source\bsw/led.c ****  */
 124:source\bsw/led.c **** RC_t LED_Set(LED_id_t ledId, LED_ONOFF_t ledOnOff)
 125:source\bsw/led.c **** {
  28              		.loc 1 125 0
  29              		.cfi_startproc
  30              		@ args = 0, pretend = 0, frame = 0
  31              		@ frame_needed = 0, uses_anonymous_args = 0
  32              	.LVL0:
  33 0000 38B5     		push	{r3, r4, r5, lr}
  34              		.cfi_def_cfa_offset 16
  35              		.cfi_offset 3, -16
  36              		.cfi_offset 4, -12
  37              		.cfi_offset 5, -8
  38              		.cfi_offset 14, -4
  39 0002 0446     		mov	r4, r0
  40 0004 0D46     		mov	r5, r1
 126:source\bsw/led.c ****     //set individual LED
 127:source\bsw/led.c ****     switch (ledId)
  41              		.loc 1 127 0
  42 0006 0328     		cmp	r0, #3
  43 0008 24D8     		bhi	.L9
  44 000a DFE800F0 		tbb	[pc, r0]
ARM GAS  C:\Users\Reza\AppData\Local\Temp\ccxQuLch.s 			page 4


  45              	.L4:
  46 000e 02       		.byte	(.L3-.L4)/2
  47 000f 09       		.byte	(.L5-.L4)/2
  48 0010 10       		.byte	(.L6-.L4)/2
  49 0011 1E       		.byte	(.L10-.L4)/2
  50              		.p2align 1
  51              	.L3:
 128:source\bsw/led.c ****     {
 129:source\bsw/led.c ****         case LED_RED : 
 130:source\bsw/led.c ****             LED_red_Write(ledOnOff); 
  52              		.loc 1 130 0
  53 0012 0846     		mov	r0, r1
  54              	.LVL1:
  55 0014 FFF7FEFF 		bl	LED_red_Write
  56              	.LVL2:
 131:source\bsw/led.c ****             LED__state[ledId] = ledOnOff; 
  57              		.loc 1 131 0
  58 0018 104B     		ldr	r3, .L12
  59 001a 1D55     		strb	r5, [r3, r4]
 132:source\bsw/led.c ****             break;
 133:source\bsw/led.c ****         
 134:source\bsw/led.c ****         case LED_YELLOW : 
 135:source\bsw/led.c ****             LED_yellow_Write(ledOnOff); 
 136:source\bsw/led.c ****             LED__state[ledId] = ledOnOff;
 137:source\bsw/led.c ****             break;
 138:source\bsw/led.c ****             
 139:source\bsw/led.c ****         case LED_GREEN : 
 140:source\bsw/led.c ****             LED_green_Write(ledOnOff); 
 141:source\bsw/led.c ****             LED__state[ledId] = ledOnOff;
 142:source\bsw/led.c ****             break;
 143:source\bsw/led.c ****            
 144:source\bsw/led.c ****         case LED_ALL : 
 145:source\bsw/led.c ****             for (LED_id_t i = LED_RED; i < LED_ALL; i++)
 146:source\bsw/led.c ****             {
 147:source\bsw/led.c ****                 LED_Set(i, ledOnOff);
 148:source\bsw/led.c ****             }
 149:source\bsw/led.c ****             break;
 150:source\bsw/led.c ****         default: return RC_ERROR_BAD_PARAM;
 151:source\bsw/led.c ****     }
 152:source\bsw/led.c ****     
 153:source\bsw/led.c ****     return RC_SUCCESS;
  60              		.loc 1 153 0
  61 001c 0020     		movs	r0, #0
 132:source\bsw/led.c ****             break;
  62              		.loc 1 132 0
  63 001e 38BD     		pop	{r3, r4, r5, pc}
  64              	.LVL3:
  65              	.L5:
 135:source\bsw/led.c ****             LED__state[ledId] = ledOnOff;
  66              		.loc 1 135 0
  67 0020 0846     		mov	r0, r1
  68              	.LVL4:
  69 0022 FFF7FEFF 		bl	LED_yellow_Write
  70              	.LVL5:
 136:source\bsw/led.c ****             break;
  71              		.loc 1 136 0
  72 0026 0D4B     		ldr	r3, .L12
ARM GAS  C:\Users\Reza\AppData\Local\Temp\ccxQuLch.s 			page 5


  73 0028 1D55     		strb	r5, [r3, r4]
  74              		.loc 1 153 0
  75 002a 0020     		movs	r0, #0
 137:source\bsw/led.c ****             
  76              		.loc 1 137 0
  77 002c 38BD     		pop	{r3, r4, r5, pc}
  78              	.LVL6:
  79              	.L6:
 140:source\bsw/led.c ****             LED__state[ledId] = ledOnOff;
  80              		.loc 1 140 0
  81 002e 0846     		mov	r0, r1
  82              	.LVL7:
  83 0030 FFF7FEFF 		bl	LED_green_Write
  84              	.LVL8:
 141:source\bsw/led.c ****             break;
  85              		.loc 1 141 0
  86 0034 094B     		ldr	r3, .L12
  87 0036 1D55     		strb	r5, [r3, r4]
  88              		.loc 1 153 0
  89 0038 0020     		movs	r0, #0
 142:source\bsw/led.c ****            
  90              		.loc 1 142 0
  91 003a 38BD     		pop	{r3, r4, r5, pc}
  92              	.LVL9:
  93              	.L8:
  94              	.LBB9:
 147:source\bsw/led.c ****             }
  95              		.loc 1 147 0 discriminator 3
  96 003c 2946     		mov	r1, r5
  97 003e 2046     		mov	r0, r4
  98 0040 FFF7FEFF 		bl	LED_Set
  99              	.LVL10:
 145:source\bsw/led.c ****             {
 100              		.loc 1 145 0 discriminator 3
 101 0044 0134     		adds	r4, r4, #1
 102              	.LVL11:
 103 0046 E4B2     		uxtb	r4, r4
 104              	.LVL12:
 105 0048 00E0     		b	.L7
 106              	.LVL13:
 107              	.L10:
 108              	.LBE9:
 127:source\bsw/led.c ****     {
 109              		.loc 1 127 0
 110 004a 0024     		movs	r4, #0
 111              	.LVL14:
 112              	.L7:
 113              	.LBB10:
 145:source\bsw/led.c ****             {
 114              		.loc 1 145 0 discriminator 1
 115 004c 022C     		cmp	r4, #2
 116 004e F5D9     		bls	.L8
 117              	.LBE10:
 118              		.loc 1 153 0
 119 0050 0020     		movs	r0, #0
 120              	.LBB11:
 121 0052 38BD     		pop	{r3, r4, r5, pc}
ARM GAS  C:\Users\Reza\AppData\Local\Temp\ccxQuLch.s 			page 6


 122              	.LVL15:
 123              	.L9:
 124              	.LBE11:
 150:source\bsw/led.c ****     }
 125              		.loc 1 150 0
 126 0054 6FF01300 		mvn	r0, #19
 127              	.LVL16:
 154:source\bsw/led.c **** }
 128              		.loc 1 154 0
 129 0058 38BD     		pop	{r3, r4, r5, pc}
 130              	.L13:
 131 005a 00BF     		.align	2
 132              	.L12:
 133 005c 00000000 		.word	.LANCHOR0
 134              		.cfi_endproc
 135              	.LFE115:
 136              		.size	LED_Set, .-LED_Set
 137              		.section	.text.LED_Init,"ax",%progbits
 138              		.align	2
 139              		.global	LED_Init
 140              		.thumb
 141              		.thumb_func
 142              		.type	LED_Init, %function
 143              	LED_Init:
 144              	.LFB114:
  93:source\bsw/led.c ****     RC_t result = RC_SUCCESS;
 145              		.loc 1 93 0
 146              		.cfi_startproc
 147              		@ args = 0, pretend = 0, frame = 0
 148              		@ frame_needed = 0, uses_anonymous_args = 0
 149 0000 38B5     		push	{r3, r4, r5, lr}
 150              		.cfi_def_cfa_offset 16
 151              		.cfi_offset 3, -16
 152              		.cfi_offset 4, -12
 153              		.cfi_offset 5, -8
 154              		.cfi_offset 14, -4
 155              	.LVL17:
 156              	.LBB12:
  96:source\bsw/led.c ****     {
 157              		.loc 1 96 0
 158 0002 0024     		movs	r4, #0
 159              	.LBE12:
  94:source\bsw/led.c ****     
 160              		.loc 1 94 0
 161 0004 2546     		mov	r5, r4
 162              	.LBB14:
  96:source\bsw/led.c ****     {
 163              		.loc 1 96 0
 164 0006 09E0     		b	.L15
 165              	.LVL18:
 166              	.L17:
 167              	.LBB13:
  98:source\bsw/led.c ****         
 168              		.loc 1 98 0
 169 0008 0021     		movs	r1, #0
 170 000a 094B     		ldr	r3, .L20
 171 000c 1955     		strb	r1, [r3, r4]
ARM GAS  C:\Users\Reza\AppData\Local\Temp\ccxQuLch.s 			page 7


 101:source\bsw/led.c ****         
 172              		.loc 1 101 0
 173 000e 2046     		mov	r0, r4
 174 0010 FFF7FEFF 		bl	LED_Set
 175              	.LVL19:
 103:source\bsw/led.c ****         {
 176              		.loc 1 103 0
 177 0014 00B1     		cbz	r0, .L16
 106:source\bsw/led.c ****         }
 178              		.loc 1 106 0
 179 0016 0546     		mov	r5, r0
 180              	.LVL20:
 181              	.L16:
 182              	.LBE13:
  96:source\bsw/led.c ****     {
 183              		.loc 1 96 0 discriminator 2
 184 0018 0134     		adds	r4, r4, #1
 185              	.LVL21:
 186 001a E4B2     		uxtb	r4, r4
 187              	.LVL22:
 188              	.L15:
  96:source\bsw/led.c ****     {
 189              		.loc 1 96 0 is_stmt 0 discriminator 1
 190 001c 022C     		cmp	r4, #2
 191 001e F3D9     		bls	.L17
 192              	.LBE14:
 111:source\bsw/led.c ****     RGB_PWM_green_Start();
 193              		.loc 1 111 0 is_stmt 1
 194 0020 FFF7FEFF 		bl	RGB_PWM_blue_Start
 195              	.LVL23:
 112:source\bsw/led.c ****     RGB_PWM_red_Start();
 196              		.loc 1 112 0
 197 0024 FFF7FEFF 		bl	RGB_PWM_green_Start
 198              	.LVL24:
 113:source\bsw/led.c ****     
 199              		.loc 1 113 0
 200 0028 FFF7FEFF 		bl	RGB_PWM_red_Start
 201              	.LVL25:
 116:source\bsw/led.c **** 
 202              		.loc 1 116 0
 203 002c 2846     		mov	r0, r5
 204 002e 38BD     		pop	{r3, r4, r5, pc}
 205              	.LVL26:
 206              	.L21:
 207              		.align	2
 208              	.L20:
 209 0030 00000000 		.word	.LANCHOR0
 210              		.cfi_endproc
 211              	.LFE114:
 212              		.size	LED_Init, .-LED_Init
 213              		.section	.text.LED_Toggle,"ax",%progbits
 214              		.align	2
 215              		.global	LED_Toggle
 216              		.thumb
 217              		.thumb_func
 218              		.type	LED_Toggle, %function
 219              	LED_Toggle:
ARM GAS  C:\Users\Reza\AppData\Local\Temp\ccxQuLch.s 			page 8


 220              	.LFB116:
 155:source\bsw/led.c **** 
 156:source\bsw/led.c **** 
 157:source\bsw/led.c **** 
 158:source\bsw/led.c **** /**
 159:source\bsw/led.c ****  * Toggle the required LED
 160:source\bsw/led.c ****  * @param LED_t ledId - Identifier for the LED, ALL will change all LED's
 161:source\bsw/led.c ****  * @return RC_SUCCESS if function was executed as exepected, other error code in case of error
 162:source\bsw/led.c ****  */
 163:source\bsw/led.c **** RC_t LED_Toggle(LED_id_t ledId)
 164:source\bsw/led.c **** {
 221              		.loc 1 164 0
 222              		.cfi_startproc
 223              		@ args = 0, pretend = 0, frame = 0
 224              		@ frame_needed = 0, uses_anonymous_args = 0
 225              	.LVL27:
 226 0000 10B5     		push	{r4, lr}
 227              		.cfi_def_cfa_offset 8
 228              		.cfi_offset 4, -8
 229              		.cfi_offset 14, -4
 165:source\bsw/led.c ****     //set individual LED
 166:source\bsw/led.c ****     switch (ledId)
 230              		.loc 1 166 0
 231 0002 0328     		cmp	r0, #3
 232 0004 38D8     		bhi	.L33
 233 0006 DFE800F0 		tbb	[pc, r0]
 234              	.L25:
 235 000a 02       		.byte	(.L24-.L25)/2
 236 000b 10       		.byte	(.L26-.L25)/2
 237 000c 1E       		.byte	(.L27-.L25)/2
 238 000d 32       		.byte	(.L34-.L25)/2
 239              		.p2align 1
 240              	.L24:
 167:source\bsw/led.c ****     {
 168:source\bsw/led.c ****         case LED_RED : 
 169:source\bsw/led.c ****             LED__state[ledId] = LED__toggleValue(LED__state[ledId]); 
 241              		.loc 1 169 0
 242 000e 1C4B     		ldr	r3, .L39
 243 0010 1B5C     		ldrb	r3, [r3, r0]	@ zero_extendqisi2
 244              	.LVL28:
 245              	.LBB15:
 246              	.LBB16:
 170:source\bsw/led.c ****             LED_red_Write(LED__state[ledId]);
 171:source\bsw/led.c ****             break;
 172:source\bsw/led.c ****         
 173:source\bsw/led.c ****         case LED_YELLOW : 
 174:source\bsw/led.c ****             LED__state[ledId] = LED__toggleValue(LED__state[ledId]); 
 175:source\bsw/led.c ****             LED_yellow_Write(LED__state[ledId]);
 176:source\bsw/led.c ****             break;
 177:source\bsw/led.c ****             
 178:source\bsw/led.c ****         case LED_GREEN : 
 179:source\bsw/led.c ****             LED__state[ledId] = LED__toggleValue(LED__state[ledId]); 
 180:source\bsw/led.c ****             LED_green_Write(LED__state[ledId]);
 181:source\bsw/led.c ****             break;
 182:source\bsw/led.c ****            
 183:source\bsw/led.c ****         case LED_ALL : 
 184:source\bsw/led.c ****             for (LED_id_t i = LED_RED; i < LED_ALL; i++)
ARM GAS  C:\Users\Reza\AppData\Local\Temp\ccxQuLch.s 			page 9


 185:source\bsw/led.c ****             {
 186:source\bsw/led.c ****                 LED_Toggle(i);
 187:source\bsw/led.c ****             }
 188:source\bsw/led.c ****             break;
 189:source\bsw/led.c ****         default: return RC_ERROR_BAD_PARAM;
 190:source\bsw/led.c ****     }
 191:source\bsw/led.c ****     
 192:source\bsw/led.c ****     return RC_SUCCESS;
 193:source\bsw/led.c **** }
 194:source\bsw/led.c **** 
 195:source\bsw/led.c **** 
 196:source\bsw/led.c **** /**
 197:source\bsw/led.c ****  * Inverts the parameter
 198:source\bsw/led.c ****  * @param LED_ONOFF_t ledOnOff - Value to be inverted
 199:source\bsw/led.c ****  * @return inverted parameter
 200:source\bsw/led.c ****  */
 201:source\bsw/led.c **** static inline LED_ONOFF_t LED__toggleValue(LED_ONOFF_t ledOnOff)
 202:source\bsw/led.c **** {
 203:source\bsw/led.c ****     if (ledOnOff == LED_ON) 
 247              		.loc 1 203 0
 248 0012 012B     		cmp	r3, #1
 249 0014 01D1     		bne	.L35
 204:source\bsw/led.c ****     {
 205:source\bsw/led.c ****         return LED_OFF;
 250              		.loc 1 205 0
 251 0016 0023     		movs	r3, #0
 252              	.LVL29:
 253 0018 00E0     		b	.L29
 254              	.LVL30:
 255              	.L35:
 206:source\bsw/led.c ****     }
 207:source\bsw/led.c ****     else
 208:source\bsw/led.c ****     {
 209:source\bsw/led.c ****         return LED_ON;
 256              		.loc 1 209 0
 257 001a 0123     		movs	r3, #1
 258              	.LVL31:
 259              	.L29:
 260              	.LBE16:
 261              	.LBE15:
 169:source\bsw/led.c ****             LED_red_Write(LED__state[ledId]);
 262              		.loc 1 169 0
 263 001c 184A     		ldr	r2, .L39
 264 001e 1354     		strb	r3, [r2, r0]
 170:source\bsw/led.c ****             break;
 265              		.loc 1 170 0
 266 0020 1846     		mov	r0, r3
 267              	.LVL32:
 268 0022 FFF7FEFF 		bl	LED_red_Write
 269              	.LVL33:
 192:source\bsw/led.c **** }
 270              		.loc 1 192 0
 271 0026 0020     		movs	r0, #0
 171:source\bsw/led.c ****         
 272              		.loc 1 171 0
 273 0028 10BD     		pop	{r4, pc}
 274              	.LVL34:
ARM GAS  C:\Users\Reza\AppData\Local\Temp\ccxQuLch.s 			page 10


 275              	.L26:
 174:source\bsw/led.c ****             LED_yellow_Write(LED__state[ledId]);
 276              		.loc 1 174 0
 277 002a 154B     		ldr	r3, .L39
 278 002c 1B5C     		ldrb	r3, [r3, r0]	@ zero_extendqisi2
 279              	.LVL35:
 280              	.LBB17:
 281              	.LBB18:
 203:source\bsw/led.c ****     {
 282              		.loc 1 203 0
 283 002e 012B     		cmp	r3, #1
 284 0030 01D1     		bne	.L36
 205:source\bsw/led.c ****     }
 285              		.loc 1 205 0
 286 0032 0023     		movs	r3, #0
 287              	.LVL36:
 288 0034 00E0     		b	.L30
 289              	.LVL37:
 290              	.L36:
 291              		.loc 1 209 0
 292 0036 0123     		movs	r3, #1
 293              	.LVL38:
 294              	.L30:
 295              	.LBE18:
 296              	.LBE17:
 174:source\bsw/led.c ****             LED_yellow_Write(LED__state[ledId]);
 297              		.loc 1 174 0
 298 0038 114A     		ldr	r2, .L39
 299 003a 1354     		strb	r3, [r2, r0]
 175:source\bsw/led.c ****             break;
 300              		.loc 1 175 0
 301 003c 1846     		mov	r0, r3
 302              	.LVL39:
 303 003e FFF7FEFF 		bl	LED_yellow_Write
 304              	.LVL40:
 192:source\bsw/led.c **** }
 305              		.loc 1 192 0
 306 0042 0020     		movs	r0, #0
 176:source\bsw/led.c ****             
 307              		.loc 1 176 0
 308 0044 10BD     		pop	{r4, pc}
 309              	.LVL41:
 310              	.L27:
 179:source\bsw/led.c ****             LED_green_Write(LED__state[ledId]);
 311              		.loc 1 179 0
 312 0046 0E4B     		ldr	r3, .L39
 313 0048 1B5C     		ldrb	r3, [r3, r0]	@ zero_extendqisi2
 314              	.LVL42:
 315              	.LBB19:
 316              	.LBB20:
 203:source\bsw/led.c ****     {
 317              		.loc 1 203 0
 318 004a 012B     		cmp	r3, #1
 319 004c 01D1     		bne	.L37
 205:source\bsw/led.c ****     }
 320              		.loc 1 205 0
 321 004e 0023     		movs	r3, #0
ARM GAS  C:\Users\Reza\AppData\Local\Temp\ccxQuLch.s 			page 11


 322              	.LVL43:
 323 0050 00E0     		b	.L31
 324              	.LVL44:
 325              	.L37:
 326              		.loc 1 209 0
 327 0052 0123     		movs	r3, #1
 328              	.LVL45:
 329              	.L31:
 330              	.LBE20:
 331              	.LBE19:
 179:source\bsw/led.c ****             LED_green_Write(LED__state[ledId]);
 332              		.loc 1 179 0
 333 0054 0A4A     		ldr	r2, .L39
 334 0056 1354     		strb	r3, [r2, r0]
 180:source\bsw/led.c ****             break;
 335              		.loc 1 180 0
 336 0058 1846     		mov	r0, r3
 337              	.LVL46:
 338 005a FFF7FEFF 		bl	LED_green_Write
 339              	.LVL47:
 192:source\bsw/led.c **** }
 340              		.loc 1 192 0
 341 005e 0020     		movs	r0, #0
 181:source\bsw/led.c ****            
 342              		.loc 1 181 0
 343 0060 10BD     		pop	{r4, pc}
 344              	.LVL48:
 345              	.L32:
 346              	.LBB21:
 186:source\bsw/led.c ****             }
 347              		.loc 1 186 0 discriminator 3
 348 0062 2046     		mov	r0, r4
 349 0064 FFF7FEFF 		bl	LED_Toggle
 350              	.LVL49:
 184:source\bsw/led.c ****             {
 351              		.loc 1 184 0 discriminator 3
 352 0068 0134     		adds	r4, r4, #1
 353              	.LVL50:
 354 006a E4B2     		uxtb	r4, r4
 355              	.LVL51:
 356 006c 00E0     		b	.L28
 357              	.LVL52:
 358              	.L34:
 359              	.LBE21:
 166:source\bsw/led.c ****     {
 360              		.loc 1 166 0
 361 006e 0024     		movs	r4, #0
 362              	.LVL53:
 363              	.L28:
 364              	.LBB22:
 184:source\bsw/led.c ****             {
 365              		.loc 1 184 0 discriminator 1
 366 0070 022C     		cmp	r4, #2
 367 0072 F6D9     		bls	.L32
 368              	.LBE22:
 192:source\bsw/led.c **** }
 369              		.loc 1 192 0
ARM GAS  C:\Users\Reza\AppData\Local\Temp\ccxQuLch.s 			page 12


 370 0074 0020     		movs	r0, #0
 371              	.LBB23:
 372 0076 10BD     		pop	{r4, pc}
 373              	.LVL54:
 374              	.L33:
 375              	.LBE23:
 189:source\bsw/led.c ****     }
 376              		.loc 1 189 0
 377 0078 6FF01300 		mvn	r0, #19
 378              	.LVL55:
 193:source\bsw/led.c **** 
 379              		.loc 1 193 0
 380 007c 10BD     		pop	{r4, pc}
 381              	.L40:
 382 007e 00BF     		.align	2
 383              	.L39:
 384 0080 00000000 		.word	.LANCHOR0
 385              		.cfi_endproc
 386              	.LFE116:
 387              		.size	LED_Toggle, .-LED_Toggle
 388              		.section	.text.LED_RGB_Set,"ax",%progbits
 389              		.align	2
 390              		.global	LED_RGB_Set
 391              		.thumb
 392              		.thumb_func
 393              		.type	LED_RGB_Set, %function
 394              	LED_RGB_Set:
 395              	.LFB118:
 210:source\bsw/led.c ****     }
 211:source\bsw/led.c **** }
 212:source\bsw/led.c **** 
 213:source\bsw/led.c **** /**
 214:source\bsw/led.c ****  * Set the RGB LED
 215:source\bsw/led.c ****  * @param uint16_t red - brightness 
 216:source\bsw/led.c ****  * @param uint16_t green - brightness 
 217:source\bsw/led.c ****  * @param uint16_t blue - brightness 
 218:source\bsw/led.c ****  * @return RC_SUCCESS if function was executed as exepected, other error code in case of error
 219:source\bsw/led.c ****  */
 220:source\bsw/led.c **** RC_t LED_RGB_Set(uint8_t red, uint8_t green, uint8_t blue)
 221:source\bsw/led.c **** {
 396              		.loc 1 221 0
 397              		.cfi_startproc
 398              		@ args = 0, pretend = 0, frame = 0
 399              		@ frame_needed = 0, uses_anonymous_args = 0
 400              	.LVL56:
 401 0000 70B5     		push	{r4, r5, r6, lr}
 402              		.cfi_def_cfa_offset 16
 403              		.cfi_offset 4, -16
 404              		.cfi_offset 5, -12
 405              		.cfi_offset 6, -8
 406              		.cfi_offset 14, -4
 407 0002 0E46     		mov	r6, r1
 408 0004 1546     		mov	r5, r2
 222:source\bsw/led.c ****     RGB_PWM_red_WriteCompare(LED__Pulse_Width[red]);
 409              		.loc 1 222 0
 410 0006 074C     		ldr	r4, .L43
 411 0008 34F81000 		ldrh	r0, [r4, r0, lsl #1]
ARM GAS  C:\Users\Reza\AppData\Local\Temp\ccxQuLch.s 			page 13


 412              	.LVL57:
 413 000c FFF7FEFF 		bl	RGB_PWM_red_WriteCompare
 414              	.LVL58:
 223:source\bsw/led.c ****     RGB_PWM_green_WriteCompare(LED__Pulse_Width[green]);
 415              		.loc 1 223 0
 416 0010 34F81600 		ldrh	r0, [r4, r6, lsl #1]
 417 0014 FFF7FEFF 		bl	RGB_PWM_green_WriteCompare
 418              	.LVL59:
 224:source\bsw/led.c ****     RGB_PWM_blue_WriteCompare(LED__Pulse_Width[blue]);
 419              		.loc 1 224 0
 420 0018 34F81500 		ldrh	r0, [r4, r5, lsl #1]
 421 001c FFF7FEFF 		bl	RGB_PWM_blue_WriteCompare
 422              	.LVL60:
 225:source\bsw/led.c ****  
 226:source\bsw/led.c ****     return RC_SUCCESS;
 227:source\bsw/led.c **** }
 423              		.loc 1 227 0
 424 0020 0020     		movs	r0, #0
 425 0022 70BD     		pop	{r4, r5, r6, pc}
 426              	.L44:
 427              		.align	2
 428              	.L43:
 429 0024 00000000 		.word	.LANCHOR1
 430              		.cfi_endproc
 431              	.LFE118:
 432              		.size	LED_RGB_Set, .-LED_RGB_Set
 433              		.section	.rodata
 434              		.align	2
 435              		.set	.LANCHOR1,. + 0
 436              		.type	LED__Pulse_Width, %object
 437              		.size	LED__Pulse_Width, 512
 438              	LED__Pulse_Width:
 439 0000 0000     		.short	0
 440 0002 0100     		.short	1
 441 0004 0100     		.short	1
 442 0006 0100     		.short	1
 443 0008 0100     		.short	1
 444 000a 0100     		.short	1
 445 000c 0100     		.short	1
 446 000e 0100     		.short	1
 447 0010 0100     		.short	1
 448 0012 0200     		.short	2
 449 0014 0200     		.short	2
 450 0016 0200     		.short	2
 451 0018 0200     		.short	2
 452 001a 0200     		.short	2
 453 001c 0200     		.short	2
 454 001e 0200     		.short	2
 455 0020 0200     		.short	2
 456 0022 0200     		.short	2
 457 0024 0200     		.short	2
 458 0026 0200     		.short	2
 459 0028 0200     		.short	2
 460 002a 0300     		.short	3
 461 002c 0300     		.short	3
 462 002e 0300     		.short	3
 463 0030 0300     		.short	3
ARM GAS  C:\Users\Reza\AppData\Local\Temp\ccxQuLch.s 			page 14


 464 0032 0300     		.short	3
 465 0034 0300     		.short	3
 466 0036 0300     		.short	3
 467 0038 0400     		.short	4
 468 003a 0400     		.short	4
 469 003c 0400     		.short	4
 470 003e 0400     		.short	4
 471 0040 0400     		.short	4
 472 0042 0400     		.short	4
 473 0044 0500     		.short	5
 474 0046 0500     		.short	5
 475 0048 0500     		.short	5
 476 004a 0500     		.short	5
 477 004c 0500     		.short	5
 478 004e 0600     		.short	6
 479 0050 0600     		.short	6
 480 0052 0600     		.short	6
 481 0054 0600     		.short	6
 482 0056 0700     		.short	7
 483 0058 0700     		.short	7
 484 005a 0700     		.short	7
 485 005c 0800     		.short	8
 486 005e 0800     		.short	8
 487 0060 0800     		.short	8
 488 0062 0900     		.short	9
 489 0064 0900     		.short	9
 490 0066 0A00     		.short	10
 491 0068 0A00     		.short	10
 492 006a 0A00     		.short	10
 493 006c 0B00     		.short	11
 494 006e 0B00     		.short	11
 495 0070 0C00     		.short	12
 496 0072 0C00     		.short	12
 497 0074 0D00     		.short	13
 498 0076 0D00     		.short	13
 499 0078 0E00     		.short	14
 500 007a 0F00     		.short	15
 501 007c 0F00     		.short	15
 502 007e 1000     		.short	16
 503 0080 1100     		.short	17
 504 0082 1100     		.short	17
 505 0084 1200     		.short	18
 506 0086 1300     		.short	19
 507 0088 1400     		.short	20
 508 008a 1500     		.short	21
 509 008c 1600     		.short	22
 510 008e 1700     		.short	23
 511 0090 1800     		.short	24
 512 0092 1900     		.short	25
 513 0094 1A00     		.short	26
 514 0096 1B00     		.short	27
 515 0098 1C00     		.short	28
 516 009a 1D00     		.short	29
 517 009c 1F00     		.short	31
 518 009e 2000     		.short	32
 519 00a0 2100     		.short	33
 520 00a2 2300     		.short	35
ARM GAS  C:\Users\Reza\AppData\Local\Temp\ccxQuLch.s 			page 15


 521 00a4 2400     		.short	36
 522 00a6 2600     		.short	38
 523 00a8 2800     		.short	40
 524 00aa 2900     		.short	41
 525 00ac 2B00     		.short	43
 526 00ae 2D00     		.short	45
 527 00b0 2F00     		.short	47
 528 00b2 3100     		.short	49
 529 00b4 3400     		.short	52
 530 00b6 3600     		.short	54
 531 00b8 3800     		.short	56
 532 00ba 3B00     		.short	59
 533 00bc 3D00     		.short	61
 534 00be 4000     		.short	64
 535 00c0 4300     		.short	67
 536 00c2 4600     		.short	70
 537 00c4 4900     		.short	73
 538 00c6 4C00     		.short	76
 539 00c8 4F00     		.short	79
 540 00ca 5300     		.short	83
 541 00cc 5700     		.short	87
 542 00ce 5B00     		.short	91
 543 00d0 5F00     		.short	95
 544 00d2 6300     		.short	99
 545 00d4 6700     		.short	103
 546 00d6 6C00     		.short	108
 547 00d8 7000     		.short	112
 548 00da 7500     		.short	117
 549 00dc 7B00     		.short	123
 550 00de 8000     		.short	128
 551 00e0 8600     		.short	134
 552 00e2 8C00     		.short	140
 553 00e4 9200     		.short	146
 554 00e6 9800     		.short	152
 555 00e8 9F00     		.short	159
 556 00ea A600     		.short	166
 557 00ec AD00     		.short	173
 558 00ee B500     		.short	181
 559 00f0 BD00     		.short	189
 560 00f2 C500     		.short	197
 561 00f4 CE00     		.short	206
 562 00f6 D700     		.short	215
 563 00f8 E100     		.short	225
 564 00fa EB00     		.short	235
 565 00fc F500     		.short	245
 566 00fe 0001     		.short	256
 567 0100 0B01     		.short	267
 568 0102 1701     		.short	279
 569 0104 2401     		.short	292
 570 0106 3001     		.short	304
 571 0108 3E01     		.short	318
 572 010a 4C01     		.short	332
 573 010c 5B01     		.short	347
 574 010e 6A01     		.short	362
 575 0110 7A01     		.short	378
 576 0112 8B01     		.short	395
 577 0114 9C01     		.short	412
ARM GAS  C:\Users\Reza\AppData\Local\Temp\ccxQuLch.s 			page 16


 578 0116 AF01     		.short	431
 579 0118 C201     		.short	450
 580 011a D601     		.short	470
 581 011c EA01     		.short	490
 582 011e 0002     		.short	512
 583 0120 1702     		.short	535
 584 0122 2E02     		.short	558
 585 0124 4702     		.short	583
 586 0126 6102     		.short	609
 587 0128 7C02     		.short	636
 588 012a 9802     		.short	664
 589 012c B502     		.short	693
 590 012e D402     		.short	724
 591 0130 F402     		.short	756
 592 0132 1603     		.short	790
 593 0134 3903     		.short	825
 594 0136 5D03     		.short	861
 595 0138 8303     		.short	899
 596 013a AB03     		.short	939
 597 013c D503     		.short	981
 598 013e 0004     		.short	1024
 599 0140 2D04     		.short	1069
 600 0142 5D04     		.short	1117
 601 0144 8E04     		.short	1166
 602 0146 C204     		.short	1218
 603 0148 F804     		.short	1272
 604 014a 3005     		.short	1328
 605 014c 6B05     		.short	1387
 606 014e A805     		.short	1448
 607 0150 E805     		.short	1512
 608 0152 2B06     		.short	1579
 609 0154 7106     		.short	1649
 610 0156 BA06     		.short	1722
 611 0158 0607     		.short	1798
 612 015a 5607     		.short	1878
 613 015c A907     		.short	1961
 614 015e 0008     		.short	2048
 615 0160 5B08     		.short	2139
 616 0162 B908     		.short	2233
 617 0164 1C09     		.short	2332
 618 0166 8309     		.short	2435
 619 0168 EF09     		.short	2543
 620 016a 600A     		.short	2656
 621 016c D50A     		.short	2773
 622 016e 500B     		.short	2896
 623 0170 D10B     		.short	3025
 624 0172 560C     		.short	3158
 625 0174 E20C     		.short	3298
 626 0176 740D     		.short	3444
 627 0178 0D0E     		.short	3597
 628 017a AC0E     		.short	3756
 629 017c 520F     		.short	3922
 630 017e 0010     		.short	4096
 631 0180 B510     		.short	4277
 632 0182 7311     		.short	4467
 633 0184 3812     		.short	4664
 634 0186 0713     		.short	4871
ARM GAS  C:\Users\Reza\AppData\Local\Temp\ccxQuLch.s 			page 17


 635 0188 DF13     		.short	5087
 636 018a C014     		.short	5312
 637 018c AB15     		.short	5547
 638 018e A116     		.short	5793
 639 0190 A117     		.short	6049
 640 0192 AD18     		.short	6317
 641 0194 C419     		.short	6596
 642 0196 E91A     		.short	6889
 643 0198 1A1C     		.short	7194
 644 019a 581D     		.short	7512
 645 019c A51E     		.short	7845
 646 019e 0020     		.short	8192
 647 01a0 6B21     		.short	8555
 648 01a2 E522     		.short	8933
 649 01a4 7124     		.short	9329
 650 01a6 0E26     		.short	9742
 651 01a8 BD27     		.short	10173
 652 01aa 8029     		.short	10624
 653 01ac 562B     		.short	11094
 654 01ae 412D     		.short	11585
 655 01b0 422F     		.short	12098
 656 01b2 5A31     		.short	12634
 657 01b4 8933     		.short	13193
 658 01b6 D135     		.short	13777
 659 01b8 3338     		.short	14387
 660 01ba B03A     		.short	15024
 661 01bc 493D     		.short	15689
 662 01be 0040     		.short	16384
 663 01c0 D542     		.short	17109
 664 01c2 CB45     		.short	17867
 665 01c4 E248     		.short	18658
 666 01c6 1C4C     		.short	19484
 667 01c8 7A4F     		.short	20346
 668 01ca FF52     		.short	21247
 669 01cc AC56     		.short	22188
 670 01ce 825A     		.short	23170
 671 01d0 845E     		.short	24196
 672 01d2 B362     		.short	25267
 673 01d4 1267     		.short	26386
 674 01d6 A26B     		.short	27554
 675 01d8 6670     		.short	28774
 676 01da 6075     		.short	30048
 677 01dc 927A     		.short	31378
 678 01de 0080     		.short	-32768
 679 01e0 AA85     		.short	-31318
 680 01e2 958B     		.short	-29803
 681 01e4 C391     		.short	-28221
 682 01e6 3798     		.short	-26569
 683 01e8 F59E     		.short	-24843
 684 01ea FEA5     		.short	-23042
 685 01ec 58AD     		.short	-21160
 686 01ee 04B5     		.short	-19196
 687 01f0 08BD     		.short	-17144
 688 01f2 66C5     		.short	-15002
 689 01f4 24CE     		.short	-12764
 690 01f6 44D7     		.short	-10428
 691 01f8 CCE0     		.short	-7988
ARM GAS  C:\Users\Reza\AppData\Local\Temp\ccxQuLch.s 			page 18


 692 01fa C0EA     		.short	-5440
 693 01fc 25F5     		.short	-2779
 694 01fe FFFF     		.short	-1
 695              		.bss
 696              		.align	2
 697              		.set	.LANCHOR0,. + 0
 698              		.type	LED__state, %object
 699              		.size	LED__state, 3
 700              	LED__state:
 701 0000 000000   		.space	3
 702              		.text
 703              	.Letext0:
 704              		.file 2 "c:\\program files (x86)\\cypress\\psoc creator\\4.2\\psoc creator\\import\\gnu\\arm\\5.4.
 705              		.file 3 "c:\\program files (x86)\\cypress\\psoc creator\\4.2\\psoc creator\\import\\gnu\\arm\\5.4.
 706              		.file 4 "Generated_Source\\PSoC5/cytypes.h"
 707              		.file 5 "Generated_Source\\PSoC5/SimpleSystem_common_ee_types.inc"
 708              		.file 6 "Generated_Source\\PSoC5/SimpleSystem_cortex_mx_ee_cpu.inc"
 709              		.file 7 "source\\bsw\\global.h"
 710              		.file 8 "source\\bsw\\led.h"
 711              		.file 9 "Generated_Source\\PSoC5/SimpleSystem_ee_oo_intfunc.inc"
 712              		.file 10 "Generated_Source\\PSoC5/SimpleSystem_cortex_mx_ee_context.inc"
 713              		.file 11 "Generated_Source\\PSoC5/SimpleSystem_common_ee_primitives.inc"
 714              		.file 12 "Generated_Source\\PSoC5/cmsis_gcc.h"
 715              		.file 13 "Generated_Source\\PSoC5/core_cm3.h"
 716              		.file 14 "Generated_Source\\PSoC5/LED_red.h"
 717              		.file 15 "Generated_Source\\PSoC5/LED_yellow.h"
 718              		.file 16 "Generated_Source\\PSoC5/LED_green.h"
 719              		.file 17 "Generated_Source\\PSoC5/RGB_PWM_blue.h"
 720              		.file 18 "Generated_Source\\PSoC5/RGB_PWM_green.h"
 721              		.file 19 "Generated_Source\\PSoC5/RGB_PWM_red.h"