ARM GAS  C:\Users\Reza\AppData\Local\Temp\cc7uXqLk.s 			page 1


   1              		.syntax unified
   2              		.cpu cortex-m3
   3              		.fpu softvfp
   4              		.eabi_attribute 20, 1
   5              		.eabi_attribute 21, 1
   6              		.eabi_attribute 23, 3
   7              		.eabi_attribute 24, 1
   8              		.eabi_attribute 25, 1
   9              		.eabi_attribute 26, 1
  10              		.eabi_attribute 30, 1
  11              		.eabi_attribute 34, 1
  12              		.eabi_attribute 18, 4
  13              		.thumb
  14              		.syntax unified
  15              		.file	"main.c"
  16              		.text
  17              	.Ltext0:
  18              		.cfi_sections	.debug_frame
  19              		.section	.text.ISR2_systick_handler,"ax",%progbits
  20              		.align	2
  21              		.global	ISR2_systick_handler
  22              		.thumb
  23              		.thumb_func
  24              		.type	ISR2_systick_handler, %function
  25              	ISR2_systick_handler:
  26              	.LFB115:
  27              		.file 1 "source\\asw\\main.c"
   1:source\asw/main.c **** /* ========================================
   2:source\asw/main.c ****  *
   3:source\asw/main.c ****  * Copyright YOUR COMPANY, THE YEAR
   4:source\asw/main.c ****  * All Rights Reserved
   5:source\asw/main.c ****  * UNPUBLISHED, LICENSED SOFTWARE.
   6:source\asw/main.c ****  *
   7:source\asw/main.c ****  * CONFIDENTIAL AND PROPRIETARY INFORMATION
   8:source\asw/main.c ****  * WHICH IS THE PROPERTY OF your company.
   9:source\asw/main.c ****  *
  10:source\asw/main.c ****  * ========================================
  11:source\asw/main.c **** */
  12:source\asw/main.c **** #include "project.h"
  13:source\asw/main.c **** #include "global.h"
  14:source\asw/main.c **** 
  15:source\asw/main.c **** #include "button.h"
  16:source\asw/main.c **** #include "led.h"
  17:source\asw/main.c **** #include "seven.h"
  18:source\asw/main.c **** 
  19:source\asw/main.c **** #include "sound.h"
  20:source\asw/main.c **** #include "sound_data.h"
  21:source\asw/main.c **** 
  22:source\asw/main.c **** #include "mp3.h"
  23:source\asw/main.c **** 
  24:source\asw/main.c **** //ISR which will increment the systick counter every ms
  25:source\asw/main.c **** ISR(systick_handler)
  26:source\asw/main.c **** {
  28              		.loc 1 26 0
  29              		.cfi_startproc
  30              		@ args = 0, pretend = 0, frame = 0
  31              		@ frame_needed = 0, uses_anonymous_args = 0
ARM GAS  C:\Users\Reza\AppData\Local\Temp\cc7uXqLk.s 			page 2


  32 0000 08B5     		push	{r3, lr}
  33              		.cfi_def_cfa_offset 8
  34              		.cfi_offset 3, -8
  35              		.cfi_offset 14, -4
  27:source\asw/main.c ****     CounterTick(cnt_systick);
  36              		.loc 1 27 0
  37 0002 0020     		movs	r0, #0
  38 0004 FFF7FEFF 		bl	EE_oo_IncrementCounter
  39              	.LVL0:
  40 0008 08BD     		pop	{r3, pc}
  41              		.cfi_endproc
  42              	.LFE115:
  43              		.size	ISR2_systick_handler, .-ISR2_systick_handler
  44 000a 00BF     		.section	.text.systick_handler,"ax",%progbits
  45              		.align	2
  46              		.global	systick_handler
  47              		.thumb
  48              		.thumb_func
  49              		.type	systick_handler, %function
  50              	systick_handler:
  51              	.LFB114:
  25:source\asw/main.c **** {
  52              		.loc 1 25 0
  53              		.cfi_startproc
  54              		@ Stack Align: May be called with mis-aligned SP.
  55              		@ args = 0, pretend = 0, frame = 0
  56              		@ frame_needed = 0, uses_anonymous_args = 0
  57 0000 6846     		mov	r0, sp
  58              		.cfi_register 13, 0
  59 0002 20F00701 		bic	r1, r0, #7
  60 0006 8D46     		mov	sp, r1
  61 0008 19B5     		push	{r0, r3, r4, lr}
  62              		.cfi_def_cfa_offset 16
  63              		.cfi_offset 13, -16
  64              		.cfi_offset 3, -12
  65              		.cfi_offset 4, -8
  66              		.cfi_offset 14, -4
  67              	.LVL1:
  68              	.LBB104:
  69              	.LBB105:
  70              		.file 2 "Generated_Source\\PSoC5/SimpleSystem_cortex_mx_ee_cpu.inc"
   1:Generated_Source\PSoC5/SimpleSystem_cortex_mx_ee_cpu.inc **** /* ###*B*###
   2:Generated_Source\PSoC5/SimpleSystem_cortex_mx_ee_cpu.inc ****  * ERIKA Enterprise - a tiny RTOS for small microcontrollers
   3:Generated_Source\PSoC5/SimpleSystem_cortex_mx_ee_cpu.inc ****  *
   4:Generated_Source\PSoC5/SimpleSystem_cortex_mx_ee_cpu.inc ****  * Copyright (C) 2002-2011  Evidence Srl
   5:Generated_Source\PSoC5/SimpleSystem_cortex_mx_ee_cpu.inc ****  *
   6:Generated_Source\PSoC5/SimpleSystem_cortex_mx_ee_cpu.inc ****  * This file is part of ERIKA Enterprise.
   7:Generated_Source\PSoC5/SimpleSystem_cortex_mx_ee_cpu.inc ****  *
   8:Generated_Source\PSoC5/SimpleSystem_cortex_mx_ee_cpu.inc ****  * ERIKA Enterprise is free software; you can redistribute it
   9:Generated_Source\PSoC5/SimpleSystem_cortex_mx_ee_cpu.inc ****  * and/or modify it under the terms of the GNU General Public License
  10:Generated_Source\PSoC5/SimpleSystem_cortex_mx_ee_cpu.inc ****  * version 2 as published by the Free Software Foundation, 
  11:Generated_Source\PSoC5/SimpleSystem_cortex_mx_ee_cpu.inc ****  * (with a special exception described below).
  12:Generated_Source\PSoC5/SimpleSystem_cortex_mx_ee_cpu.inc ****  *
  13:Generated_Source\PSoC5/SimpleSystem_cortex_mx_ee_cpu.inc ****  * Linking this code statically or dynamically with other modules is
  14:Generated_Source\PSoC5/SimpleSystem_cortex_mx_ee_cpu.inc ****  * making a combined work based on this code.  Thus, the terms and
  15:Generated_Source\PSoC5/SimpleSystem_cortex_mx_ee_cpu.inc ****  * conditions of the GNU General Public License cover the whole
  16:Generated_Source\PSoC5/SimpleSystem_cortex_mx_ee_cpu.inc ****  * combination.
ARM GAS  C:\Users\Reza\AppData\Local\Temp\cc7uXqLk.s 			page 3


  17:Generated_Source\PSoC5/SimpleSystem_cortex_mx_ee_cpu.inc ****  *
  18:Generated_Source\PSoC5/SimpleSystem_cortex_mx_ee_cpu.inc ****  * As a special exception, the copyright holders of this library give you
  19:Generated_Source\PSoC5/SimpleSystem_cortex_mx_ee_cpu.inc ****  * permission to link this code with independent modules to produce an
  20:Generated_Source\PSoC5/SimpleSystem_cortex_mx_ee_cpu.inc ****  * executable, regardless of the license terms of these independent
  21:Generated_Source\PSoC5/SimpleSystem_cortex_mx_ee_cpu.inc ****  * modules, and to copy and distribute the resulting executable under
  22:Generated_Source\PSoC5/SimpleSystem_cortex_mx_ee_cpu.inc ****  * terms of your choice, provided that you also meet, for each linked
  23:Generated_Source\PSoC5/SimpleSystem_cortex_mx_ee_cpu.inc ****  * independent module, the terms and conditions of the license of that
  24:Generated_Source\PSoC5/SimpleSystem_cortex_mx_ee_cpu.inc ****  * module.  An independent module is a module which is not derived from
  25:Generated_Source\PSoC5/SimpleSystem_cortex_mx_ee_cpu.inc ****  * or based on this library.  If you modify this code, you may extend
  26:Generated_Source\PSoC5/SimpleSystem_cortex_mx_ee_cpu.inc ****  * this exception to your version of the code, but you are not
  27:Generated_Source\PSoC5/SimpleSystem_cortex_mx_ee_cpu.inc ****  * obligated to do so.  If you do not wish to do so, delete this
  28:Generated_Source\PSoC5/SimpleSystem_cortex_mx_ee_cpu.inc ****  * exception statement from your version.
  29:Generated_Source\PSoC5/SimpleSystem_cortex_mx_ee_cpu.inc ****  *
  30:Generated_Source\PSoC5/SimpleSystem_cortex_mx_ee_cpu.inc ****  * ERIKA Enterprise is distributed in the hope that it will be
  31:Generated_Source\PSoC5/SimpleSystem_cortex_mx_ee_cpu.inc ****  * useful, but WITHOUT ANY WARRANTY; without even the implied warranty
  32:Generated_Source\PSoC5/SimpleSystem_cortex_mx_ee_cpu.inc ****  * of MERCHANTABILITY or FITNESS FOR A PARTICULAR PURPOSE.  See the
  33:Generated_Source\PSoC5/SimpleSystem_cortex_mx_ee_cpu.inc ****  * GNU General Public License version 2 for more details.
  34:Generated_Source\PSoC5/SimpleSystem_cortex_mx_ee_cpu.inc ****  *
  35:Generated_Source\PSoC5/SimpleSystem_cortex_mx_ee_cpu.inc ****  * You should have received a copy of the GNU General Public License
  36:Generated_Source\PSoC5/SimpleSystem_cortex_mx_ee_cpu.inc ****  * version 2 along with ERIKA Enterprise; if not, write to the
  37:Generated_Source\PSoC5/SimpleSystem_cortex_mx_ee_cpu.inc ****  * Free Software Foundation, Inc., 51 Franklin Street, Fifth Floor,
  38:Generated_Source\PSoC5/SimpleSystem_cortex_mx_ee_cpu.inc ****  * Boston, MA 02110-1301 USA.
  39:Generated_Source\PSoC5/SimpleSystem_cortex_mx_ee_cpu.inc ****  * ###*E*### */
  40:Generated_Source\PSoC5/SimpleSystem_cortex_mx_ee_cpu.inc **** 
  41:Generated_Source\PSoC5/SimpleSystem_cortex_mx_ee_cpu.inc **** /** 
  42:Generated_Source\PSoC5/SimpleSystem_cortex_mx_ee_cpu.inc **** 	@file ee_cpu.h
  43:Generated_Source\PSoC5/SimpleSystem_cortex_mx_ee_cpu.inc **** 	@brief CPU-dependent part of HAL. Derived from pkg/cpu/pic30/inc/ee_cpu.h
  44:Generated_Source\PSoC5/SimpleSystem_cortex_mx_ee_cpu.inc **** 	@author Gianluca Franchino
  45:Generated_Source\PSoC5/SimpleSystem_cortex_mx_ee_cpu.inc **** 	@author Giuseppe Serano
  46:Generated_Source\PSoC5/SimpleSystem_cortex_mx_ee_cpu.inc **** 	@date 2011
  47:Generated_Source\PSoC5/SimpleSystem_cortex_mx_ee_cpu.inc **** */ 
  48:Generated_Source\PSoC5/SimpleSystem_cortex_mx_ee_cpu.inc ****     
  49:Generated_Source\PSoC5/SimpleSystem_cortex_mx_ee_cpu.inc **** /*
  50:Generated_Source\PSoC5/SimpleSystem_cortex_mx_ee_cpu.inc ****  * PSoC Port and API Generation
  51:Generated_Source\PSoC5/SimpleSystem_cortex_mx_ee_cpu.inc ****  * Carlos Fernando Meier Martinez
  52:Generated_Source\PSoC5/SimpleSystem_cortex_mx_ee_cpu.inc ****  * Hochschule Darmstadt, Germany. 2017.
  53:Generated_Source\PSoC5/SimpleSystem_cortex_mx_ee_cpu.inc ****  */
  54:Generated_Source\PSoC5/SimpleSystem_cortex_mx_ee_cpu.inc **** 
  55:Generated_Source\PSoC5/SimpleSystem_cortex_mx_ee_cpu.inc **** #ifndef __INCLUDE_CORTEX_MX_EE_CPU_H__
  56:Generated_Source\PSoC5/SimpleSystem_cortex_mx_ee_cpu.inc **** #define __INCLUDE_CORTEX_MX_EE_CPU_H__
  57:Generated_Source\PSoC5/SimpleSystem_cortex_mx_ee_cpu.inc **** 
  58:Generated_Source\PSoC5/SimpleSystem_cortex_mx_ee_cpu.inc **** #include "SimpleSystem_eecfg.inc"
  59:Generated_Source\PSoC5/SimpleSystem_cortex_mx_ee_cpu.inc **** 
  60:Generated_Source\PSoC5/SimpleSystem_cortex_mx_ee_cpu.inc **** 
  61:Generated_Source\PSoC5/SimpleSystem_cortex_mx_ee_cpu.inc **** #ifdef __GNU__
  62:Generated_Source\PSoC5/SimpleSystem_cortex_mx_ee_cpu.inc **** #include "SimpleSystem_common_ee_compiler_gcc.inc"
  63:Generated_Source\PSoC5/SimpleSystem_cortex_mx_ee_cpu.inc **** #endif
  64:Generated_Source\PSoC5/SimpleSystem_cortex_mx_ee_cpu.inc **** 
  65:Generated_Source\PSoC5/SimpleSystem_cortex_mx_ee_cpu.inc **** /* Initial stack offset (in words): Used in multistack. */
  66:Generated_Source\PSoC5/SimpleSystem_cortex_mx_ee_cpu.inc **** #ifndef CORTEX_MX_INIT_TOS_OFFSET
  67:Generated_Source\PSoC5/SimpleSystem_cortex_mx_ee_cpu.inc **** #define CORTEX_MX_INIT_TOS_OFFSET 10
  68:Generated_Source\PSoC5/SimpleSystem_cortex_mx_ee_cpu.inc **** #endif
  69:Generated_Source\PSoC5/SimpleSystem_cortex_mx_ee_cpu.inc **** 
  70:Generated_Source\PSoC5/SimpleSystem_cortex_mx_ee_cpu.inc **** /*************************************************************************
  71:Generated_Source\PSoC5/SimpleSystem_cortex_mx_ee_cpu.inc ****  HAL Types and structures
  72:Generated_Source\PSoC5/SimpleSystem_cortex_mx_ee_cpu.inc ****  *************************************************************************/
  73:Generated_Source\PSoC5/SimpleSystem_cortex_mx_ee_cpu.inc **** 
ARM GAS  C:\Users\Reza\AppData\Local\Temp\cc7uXqLk.s 			page 4


  74:Generated_Source\PSoC5/SimpleSystem_cortex_mx_ee_cpu.inc **** /* Primitive data types */
  75:Generated_Source\PSoC5/SimpleSystem_cortex_mx_ee_cpu.inc **** #include "SimpleSystem_common_ee_types.inc"
  76:Generated_Source\PSoC5/SimpleSystem_cortex_mx_ee_cpu.inc **** 
  77:Generated_Source\PSoC5/SimpleSystem_cortex_mx_ee_cpu.inc **** typedef EE_UINT32 EE_UREG;
  78:Generated_Source\PSoC5/SimpleSystem_cortex_mx_ee_cpu.inc **** typedef EE_INT32  EE_SREG;
  79:Generated_Source\PSoC5/SimpleSystem_cortex_mx_ee_cpu.inc **** typedef EE_UINT32 EE_FREG;
  80:Generated_Source\PSoC5/SimpleSystem_cortex_mx_ee_cpu.inc **** #define EE_UREG_SIZE 4
  81:Generated_Source\PSoC5/SimpleSystem_cortex_mx_ee_cpu.inc **** 
  82:Generated_Source\PSoC5/SimpleSystem_cortex_mx_ee_cpu.inc **** /* boolean type */
  83:Generated_Source\PSoC5/SimpleSystem_cortex_mx_ee_cpu.inc **** #ifndef EE_TYPEBOOL
  84:Generated_Source\PSoC5/SimpleSystem_cortex_mx_ee_cpu.inc **** typedef EE_UREG EE_TYPEBOOL;
  85:Generated_Source\PSoC5/SimpleSystem_cortex_mx_ee_cpu.inc **** #endif
  86:Generated_Source\PSoC5/SimpleSystem_cortex_mx_ee_cpu.inc **** 
  87:Generated_Source\PSoC5/SimpleSystem_cortex_mx_ee_cpu.inc **** /* boolean true define */
  88:Generated_Source\PSoC5/SimpleSystem_cortex_mx_ee_cpu.inc **** #ifndef EE_TRUE
  89:Generated_Source\PSoC5/SimpleSystem_cortex_mx_ee_cpu.inc **** #define EE_TRUE ((EE_TYPEBOOL)1U)
  90:Generated_Source\PSoC5/SimpleSystem_cortex_mx_ee_cpu.inc **** #endif
  91:Generated_Source\PSoC5/SimpleSystem_cortex_mx_ee_cpu.inc **** 
  92:Generated_Source\PSoC5/SimpleSystem_cortex_mx_ee_cpu.inc **** /* boolean false define */
  93:Generated_Source\PSoC5/SimpleSystem_cortex_mx_ee_cpu.inc **** #ifndef EE_FALSE
  94:Generated_Source\PSoC5/SimpleSystem_cortex_mx_ee_cpu.inc **** #define EE_FALSE ((EE_TYPEBOOL)0U)
  95:Generated_Source\PSoC5/SimpleSystem_cortex_mx_ee_cpu.inc **** #endif
  96:Generated_Source\PSoC5/SimpleSystem_cortex_mx_ee_cpu.inc **** 
  97:Generated_Source\PSoC5/SimpleSystem_cortex_mx_ee_cpu.inc **** #define	EE_HWREG_PTR		volatile EE_UREG *
  98:Generated_Source\PSoC5/SimpleSystem_cortex_mx_ee_cpu.inc **** #define	EE_HWREG_ADDR(x)	((EE_HWREG_PTR)(x))
  99:Generated_Source\PSoC5/SimpleSystem_cortex_mx_ee_cpu.inc **** #define	EE_HWREG(x)		(*EE_HWREG_ADDR(x))
 100:Generated_Source\PSoC5/SimpleSystem_cortex_mx_ee_cpu.inc **** 
 101:Generated_Source\PSoC5/SimpleSystem_cortex_mx_ee_cpu.inc **** #ifdef __GNU__
 102:Generated_Source\PSoC5/SimpleSystem_cortex_mx_ee_cpu.inc **** 
 103:Generated_Source\PSoC5/SimpleSystem_cortex_mx_ee_cpu.inc **** /* Get current SP */
 104:Generated_Source\PSoC5/SimpleSystem_cortex_mx_ee_cpu.inc **** __INLINE__ EE_UINT32  __current_sp(void)
 105:Generated_Source\PSoC5/SimpleSystem_cortex_mx_ee_cpu.inc **** {
 106:Generated_Source\PSoC5/SimpleSystem_cortex_mx_ee_cpu.inc **** EE_UINT32 temp;
 107:Generated_Source\PSoC5/SimpleSystem_cortex_mx_ee_cpu.inc **** __ASM ("mov %0, sp" : "=r" (temp) : );
 108:Generated_Source\PSoC5/SimpleSystem_cortex_mx_ee_cpu.inc **** return temp;
 109:Generated_Source\PSoC5/SimpleSystem_cortex_mx_ee_cpu.inc **** }
 110:Generated_Source\PSoC5/SimpleSystem_cortex_mx_ee_cpu.inc **** 
 111:Generated_Source\PSoC5/SimpleSystem_cortex_mx_ee_cpu.inc **** /* Set a breakpoint */
 112:Generated_Source\PSoC5/SimpleSystem_cortex_mx_ee_cpu.inc **** #define __breakpoint(value)	__ASM ("bkpt "#value)
 113:Generated_Source\PSoC5/SimpleSystem_cortex_mx_ee_cpu.inc **** 
 114:Generated_Source\PSoC5/SimpleSystem_cortex_mx_ee_cpu.inc **** #endif
 115:Generated_Source\PSoC5/SimpleSystem_cortex_mx_ee_cpu.inc **** 
 116:Generated_Source\PSoC5/SimpleSystem_cortex_mx_ee_cpu.inc **** /* ISR Priority representation type */
 117:Generated_Source\PSoC5/SimpleSystem_cortex_mx_ee_cpu.inc **** typedef EE_UREG EE_TYPEISR2PRIO;
 118:Generated_Source\PSoC5/SimpleSystem_cortex_mx_ee_cpu.inc **** 
 119:Generated_Source\PSoC5/SimpleSystem_cortex_mx_ee_cpu.inc **** /* Thread IDs */
 120:Generated_Source\PSoC5/SimpleSystem_cortex_mx_ee_cpu.inc **** typedef EE_INT32 EE_TID;
 121:Generated_Source\PSoC5/SimpleSystem_cortex_mx_ee_cpu.inc **** 
 122:Generated_Source\PSoC5/SimpleSystem_cortex_mx_ee_cpu.inc **** /* Thread IDs - unsigned version*/
 123:Generated_Source\PSoC5/SimpleSystem_cortex_mx_ee_cpu.inc **** typedef EE_UINT32 EE_UTID;
 124:Generated_Source\PSoC5/SimpleSystem_cortex_mx_ee_cpu.inc **** 
 125:Generated_Source\PSoC5/SimpleSystem_cortex_mx_ee_cpu.inc **** /* Used by the common layer to decide whether to start a new thread */
 126:Generated_Source\PSoC5/SimpleSystem_cortex_mx_ee_cpu.inc **** #define TID_IS_STACKED_MARK 0x80000000
 127:Generated_Source\PSoC5/SimpleSystem_cortex_mx_ee_cpu.inc **** 
 128:Generated_Source\PSoC5/SimpleSystem_cortex_mx_ee_cpu.inc **** /* EE_TYPEIRQ is currently unused */
 129:Generated_Source\PSoC5/SimpleSystem_cortex_mx_ee_cpu.inc **** 
 130:Generated_Source\PSoC5/SimpleSystem_cortex_mx_ee_cpu.inc **** /* XXX: define EE_TIME? */
ARM GAS  C:\Users\Reza\AppData\Local\Temp\cc7uXqLk.s 			page 5


 131:Generated_Source\PSoC5/SimpleSystem_cortex_mx_ee_cpu.inc **** 
 132:Generated_Source\PSoC5/SimpleSystem_cortex_mx_ee_cpu.inc **** /* Use the "standard" implementation */
 133:Generated_Source\PSoC5/SimpleSystem_cortex_mx_ee_cpu.inc **** #include "SimpleSystem_common_ee_hal_structs.inc"
 134:Generated_Source\PSoC5/SimpleSystem_cortex_mx_ee_cpu.inc **** 
 135:Generated_Source\PSoC5/SimpleSystem_cortex_mx_ee_cpu.inc **** /******************************************************************************
 136:Generated_Source\PSoC5/SimpleSystem_cortex_mx_ee_cpu.inc ****  Application dependent data types
 137:Generated_Source\PSoC5/SimpleSystem_cortex_mx_ee_cpu.inc ****  ******************************************************************************/
 138:Generated_Source\PSoC5/SimpleSystem_cortex_mx_ee_cpu.inc **** 
 139:Generated_Source\PSoC5/SimpleSystem_cortex_mx_ee_cpu.inc **** #ifdef	__HAS_TYPES_H__
 140:Generated_Source\PSoC5/SimpleSystem_cortex_mx_ee_cpu.inc **** #include	"types.h"
 141:Generated_Source\PSoC5/SimpleSystem_cortex_mx_ee_cpu.inc **** #endif
 142:Generated_Source\PSoC5/SimpleSystem_cortex_mx_ee_cpu.inc **** 
 143:Generated_Source\PSoC5/SimpleSystem_cortex_mx_ee_cpu.inc **** /******************************************************************************
 144:Generated_Source\PSoC5/SimpleSystem_cortex_mx_ee_cpu.inc ****  CPU Peripherals
 145:Generated_Source\PSoC5/SimpleSystem_cortex_mx_ee_cpu.inc ****  ******************************************************************************/
 146:Generated_Source\PSoC5/SimpleSystem_cortex_mx_ee_cpu.inc **** 
 147:Generated_Source\PSoC5/SimpleSystem_cortex_mx_ee_cpu.inc **** #ifdef __CORTEX_MX__
 148:Generated_Source\PSoC5/SimpleSystem_cortex_mx_ee_cpu.inc **** #include "SimpleSystem_cortex_mx_ee_nvic.inc"
 149:Generated_Source\PSoC5/SimpleSystem_cortex_mx_ee_cpu.inc **** #include "SimpleSystem_cortex_mx_ee_systick.inc"
 150:Generated_Source\PSoC5/SimpleSystem_cortex_mx_ee_cpu.inc **** #endif
 151:Generated_Source\PSoC5/SimpleSystem_cortex_mx_ee_cpu.inc **** 
 152:Generated_Source\PSoC5/SimpleSystem_cortex_mx_ee_cpu.inc **** /******************************************************************************
 153:Generated_Source\PSoC5/SimpleSystem_cortex_mx_ee_cpu.inc ****  HAL Variables
 154:Generated_Source\PSoC5/SimpleSystem_cortex_mx_ee_cpu.inc ****  ******************************************************************************/
 155:Generated_Source\PSoC5/SimpleSystem_cortex_mx_ee_cpu.inc **** 
 156:Generated_Source\PSoC5/SimpleSystem_cortex_mx_ee_cpu.inc **** #ifdef __MULTI__
 157:Generated_Source\PSoC5/SimpleSystem_cortex_mx_ee_cpu.inc **** 
 158:Generated_Source\PSoC5/SimpleSystem_cortex_mx_ee_cpu.inc **** /* Top-of-stack of each private stack */
 159:Generated_Source\PSoC5/SimpleSystem_cortex_mx_ee_cpu.inc **** extern struct EE_TOS EE_cortex_mx_system_tos[];
 160:Generated_Source\PSoC5/SimpleSystem_cortex_mx_ee_cpu.inc **** //#define	EE_std_system_tos EE_cortex_mx_system_tos
 161:Generated_Source\PSoC5/SimpleSystem_cortex_mx_ee_cpu.inc **** 
 162:Generated_Source\PSoC5/SimpleSystem_cortex_mx_ee_cpu.inc **** /* Index of the current stack */
 163:Generated_Source\PSoC5/SimpleSystem_cortex_mx_ee_cpu.inc **** extern EE_UREG EE_cortex_mx_active_tos;
 164:Generated_Source\PSoC5/SimpleSystem_cortex_mx_ee_cpu.inc **** #define	EE_hal_active_tos EE_cortex_mx_active_tos
 165:Generated_Source\PSoC5/SimpleSystem_cortex_mx_ee_cpu.inc **** 
 166:Generated_Source\PSoC5/SimpleSystem_cortex_mx_ee_cpu.inc **** /*extern	EE_UREG EE_pic30_thread_tos[];
 167:Generated_Source\PSoC5/SimpleSystem_cortex_mx_ee_cpu.inc **** #define	EE_std_thread_tos EE_pic30_thread_tos */
 168:Generated_Source\PSoC5/SimpleSystem_cortex_mx_ee_cpu.inc **** #endif /* __MULTI__ */
 169:Generated_Source\PSoC5/SimpleSystem_cortex_mx_ee_cpu.inc **** 
 170:Generated_Source\PSoC5/SimpleSystem_cortex_mx_ee_cpu.inc **** /*********************************************************************
 171:Generated_Source\PSoC5/SimpleSystem_cortex_mx_ee_cpu.inc ****  Cortex M0 interrupt disabling/enabling
 172:Generated_Source\PSoC5/SimpleSystem_cortex_mx_ee_cpu.inc ****  *********************************************************************/
 173:Generated_Source\PSoC5/SimpleSystem_cortex_mx_ee_cpu.inc **** 
 174:Generated_Source\PSoC5/SimpleSystem_cortex_mx_ee_cpu.inc **** /* Used to check the value returned by EE_cortex_mx_disableIRQ */
 175:Generated_Source\PSoC5/SimpleSystem_cortex_mx_ee_cpu.inc **** #define EE_cortex_mx_are_IRQs_enabled(ie) ((ie) ^ 1)
 176:Generated_Source\PSoC5/SimpleSystem_cortex_mx_ee_cpu.inc **** 
 177:Generated_Source\PSoC5/SimpleSystem_cortex_mx_ee_cpu.inc **** /**
 178:Generated_Source\PSoC5/SimpleSystem_cortex_mx_ee_cpu.inc ****  * Enable interrupts
 179:Generated_Source\PSoC5/SimpleSystem_cortex_mx_ee_cpu.inc ****  */
 180:Generated_Source\PSoC5/SimpleSystem_cortex_mx_ee_cpu.inc **** __INLINE__ void  EE_cortex_mx_enableIRQ(void)
 181:Generated_Source\PSoC5/SimpleSystem_cortex_mx_ee_cpu.inc **** {
 182:Generated_Source\PSoC5/SimpleSystem_cortex_mx_ee_cpu.inc **** #ifdef __IAR__
 183:Generated_Source\PSoC5/SimpleSystem_cortex_mx_ee_cpu.inc **** 	__ASM ("cpsie i");
 184:Generated_Source\PSoC5/SimpleSystem_cortex_mx_ee_cpu.inc **** #else	/* __IAR__ */
 185:Generated_Source\PSoC5/SimpleSystem_cortex_mx_ee_cpu.inc **** #ifdef __CCS__
 186:Generated_Source\PSoC5/SimpleSystem_cortex_mx_ee_cpu.inc **** 	__ASM ("    cpsie    i\n");
 187:Generated_Source\PSoC5/SimpleSystem_cortex_mx_ee_cpu.inc **** #else	/* __CCS__ */
ARM GAS  C:\Users\Reza\AppData\Local\Temp\cc7uXqLk.s 			page 6


 188:Generated_Source\PSoC5/SimpleSystem_cortex_mx_ee_cpu.inc **** #ifdef __KEIL__
 189:Generated_Source\PSoC5/SimpleSystem_cortex_mx_ee_cpu.inc **** 	__enable_irq();
 190:Generated_Source\PSoC5/SimpleSystem_cortex_mx_ee_cpu.inc **** #else	/* __KEIL__ */
 191:Generated_Source\PSoC5/SimpleSystem_cortex_mx_ee_cpu.inc **** 	__ASM volatile("cpsie i");
 192:Generated_Source\PSoC5/SimpleSystem_cortex_mx_ee_cpu.inc **** #endif	/* !__KEIL__ */
 193:Generated_Source\PSoC5/SimpleSystem_cortex_mx_ee_cpu.inc **** #endif	/* !__CCS__ */
 194:Generated_Source\PSoC5/SimpleSystem_cortex_mx_ee_cpu.inc **** #endif	/* !__IAR__ */
 195:Generated_Source\PSoC5/SimpleSystem_cortex_mx_ee_cpu.inc **** }
 196:Generated_Source\PSoC5/SimpleSystem_cortex_mx_ee_cpu.inc **** 
 197:Generated_Source\PSoC5/SimpleSystem_cortex_mx_ee_cpu.inc **** /**
 198:Generated_Source\PSoC5/SimpleSystem_cortex_mx_ee_cpu.inc ****  * Disable interrupts
 199:Generated_Source\PSoC5/SimpleSystem_cortex_mx_ee_cpu.inc ****  */
 200:Generated_Source\PSoC5/SimpleSystem_cortex_mx_ee_cpu.inc **** __INLINE__ void  EE_cortex_mx_disableIRQ(void)
 201:Generated_Source\PSoC5/SimpleSystem_cortex_mx_ee_cpu.inc **** {
 202:Generated_Source\PSoC5/SimpleSystem_cortex_mx_ee_cpu.inc **** #ifdef __IAR__
 203:Generated_Source\PSoC5/SimpleSystem_cortex_mx_ee_cpu.inc **** 	__ASM ("cpsid i");
 204:Generated_Source\PSoC5/SimpleSystem_cortex_mx_ee_cpu.inc **** #else	/* __IAR__ */
 205:Generated_Source\PSoC5/SimpleSystem_cortex_mx_ee_cpu.inc **** #ifdef __CCS__
 206:Generated_Source\PSoC5/SimpleSystem_cortex_mx_ee_cpu.inc **** 	__ASM ("    cpsid    i\n");
 207:Generated_Source\PSoC5/SimpleSystem_cortex_mx_ee_cpu.inc **** #else	/* __CCS__ */
 208:Generated_Source\PSoC5/SimpleSystem_cortex_mx_ee_cpu.inc **** #ifdef __KEIL__
 209:Generated_Source\PSoC5/SimpleSystem_cortex_mx_ee_cpu.inc **** 	__disable_irq();
 210:Generated_Source\PSoC5/SimpleSystem_cortex_mx_ee_cpu.inc **** #else	/* __KEIL__ */
 211:Generated_Source\PSoC5/SimpleSystem_cortex_mx_ee_cpu.inc **** 	__ASM volatile("cpsid i");
  71              		.loc 2 211 0
  72              		.syntax unified
  73              	@ 211 "Generated_Source\PSoC5/SimpleSystem_cortex_mx_ee_cpu.inc" 1
  74 000a 72B6     		cpsid i
  75              	@ 0 "" 2
  76              		.thumb
  77              		.syntax unified
  78              	.LBE105:
  79              	.LBE104:
  80              	.LBB106:
  81              	.LBB107:
 212:Generated_Source\PSoC5/SimpleSystem_cortex_mx_ee_cpu.inc **** #endif	/* !__KEIL__ */
 213:Generated_Source\PSoC5/SimpleSystem_cortex_mx_ee_cpu.inc **** #endif	/* !__CCS__ */
 214:Generated_Source\PSoC5/SimpleSystem_cortex_mx_ee_cpu.inc **** #endif	/* !__IAR__ */
 215:Generated_Source\PSoC5/SimpleSystem_cortex_mx_ee_cpu.inc **** }
 216:Generated_Source\PSoC5/SimpleSystem_cortex_mx_ee_cpu.inc **** 
 217:Generated_Source\PSoC5/SimpleSystem_cortex_mx_ee_cpu.inc **** /**
 218:Generated_Source\PSoC5/SimpleSystem_cortex_mx_ee_cpu.inc ****  * Resume interrupts
 219:Generated_Source\PSoC5/SimpleSystem_cortex_mx_ee_cpu.inc ****  */
 220:Generated_Source\PSoC5/SimpleSystem_cortex_mx_ee_cpu.inc **** __INLINE__ void  EE_cortex_mx_resumeIRQ(EE_FREG f)
 221:Generated_Source\PSoC5/SimpleSystem_cortex_mx_ee_cpu.inc **** {
 222:Generated_Source\PSoC5/SimpleSystem_cortex_mx_ee_cpu.inc **** #ifdef __IAR__
 223:Generated_Source\PSoC5/SimpleSystem_cortex_mx_ee_cpu.inc **** 	__set_PRIMASK(f);
 224:Generated_Source\PSoC5/SimpleSystem_cortex_mx_ee_cpu.inc **** #else	/* __IAR__ */
 225:Generated_Source\PSoC5/SimpleSystem_cortex_mx_ee_cpu.inc **** #ifdef __CCS__
 226:Generated_Source\PSoC5/SimpleSystem_cortex_mx_ee_cpu.inc **** 	__ASM ("    msr    primask, r0\n");
 227:Generated_Source\PSoC5/SimpleSystem_cortex_mx_ee_cpu.inc **** #else	/* __CCS__ */
 228:Generated_Source\PSoC5/SimpleSystem_cortex_mx_ee_cpu.inc **** #ifdef __KEIL__
 229:Generated_Source\PSoC5/SimpleSystem_cortex_mx_ee_cpu.inc **** 	register EE_FREG PRIMASK __ASM("primask");
 230:Generated_Source\PSoC5/SimpleSystem_cortex_mx_ee_cpu.inc **** 	PRIMASK = f;
 231:Generated_Source\PSoC5/SimpleSystem_cortex_mx_ee_cpu.inc **** #else	/* __KEIL__ */
 232:Generated_Source\PSoC5/SimpleSystem_cortex_mx_ee_cpu.inc **** 	__ASM volatile("msr primask, %0" :: "r" (f));
 233:Generated_Source\PSoC5/SimpleSystem_cortex_mx_ee_cpu.inc **** #endif	/* !__KEIL__ */
ARM GAS  C:\Users\Reza\AppData\Local\Temp\cc7uXqLk.s 			page 7


 234:Generated_Source\PSoC5/SimpleSystem_cortex_mx_ee_cpu.inc **** #endif	/* !__CCS__ */
 235:Generated_Source\PSoC5/SimpleSystem_cortex_mx_ee_cpu.inc **** #endif	/* !__IAR__ */
 236:Generated_Source\PSoC5/SimpleSystem_cortex_mx_ee_cpu.inc **** }
 237:Generated_Source\PSoC5/SimpleSystem_cortex_mx_ee_cpu.inc **** 
 238:Generated_Source\PSoC5/SimpleSystem_cortex_mx_ee_cpu.inc **** /**
 239:Generated_Source\PSoC5/SimpleSystem_cortex_mx_ee_cpu.inc ****  * Suspend interrupts
 240:Generated_Source\PSoC5/SimpleSystem_cortex_mx_ee_cpu.inc ****  */
 241:Generated_Source\PSoC5/SimpleSystem_cortex_mx_ee_cpu.inc **** __INLINE__ EE_FREG  EE_cortex_mx_suspendIRQ(void)
 242:Generated_Source\PSoC5/SimpleSystem_cortex_mx_ee_cpu.inc **** {
 243:Generated_Source\PSoC5/SimpleSystem_cortex_mx_ee_cpu.inc **** #ifndef __CCS__
 244:Generated_Source\PSoC5/SimpleSystem_cortex_mx_ee_cpu.inc **** 	EE_FREG istat;
 245:Generated_Source\PSoC5/SimpleSystem_cortex_mx_ee_cpu.inc **** #endif
 246:Generated_Source\PSoC5/SimpleSystem_cortex_mx_ee_cpu.inc **** #ifdef __IAR__
 247:Generated_Source\PSoC5/SimpleSystem_cortex_mx_ee_cpu.inc **** 	 istat = __get_PRIMASK();
 248:Generated_Source\PSoC5/SimpleSystem_cortex_mx_ee_cpu.inc **** 	__ASM ("cpsid i");
 249:Generated_Source\PSoC5/SimpleSystem_cortex_mx_ee_cpu.inc **** #else	/* __IAR__ */
 250:Generated_Source\PSoC5/SimpleSystem_cortex_mx_ee_cpu.inc **** #ifdef __CCS__
 251:Generated_Source\PSoC5/SimpleSystem_cortex_mx_ee_cpu.inc **** 	__ASM ("    mrs     r0, primask\n"
 252:Generated_Source\PSoC5/SimpleSystem_cortex_mx_ee_cpu.inc **** 	       "    cpsid   i\n"
 253:Generated_Source\PSoC5/SimpleSystem_cortex_mx_ee_cpu.inc **** 	       "    bx      lr\n");
 254:Generated_Source\PSoC5/SimpleSystem_cortex_mx_ee_cpu.inc **** #else	/* __CCS__ */
 255:Generated_Source\PSoC5/SimpleSystem_cortex_mx_ee_cpu.inc **** #ifdef __KEIL__
 256:Generated_Source\PSoC5/SimpleSystem_cortex_mx_ee_cpu.inc **** 	register EE_FREG PRIMASK __ASM("primask");
 257:Generated_Source\PSoC5/SimpleSystem_cortex_mx_ee_cpu.inc **** 	istat = PRIMASK;
 258:Generated_Source\PSoC5/SimpleSystem_cortex_mx_ee_cpu.inc **** 	__disable_irq();
 259:Generated_Source\PSoC5/SimpleSystem_cortex_mx_ee_cpu.inc **** #else	/* __KEIL__ */
 260:Generated_Source\PSoC5/SimpleSystem_cortex_mx_ee_cpu.inc **** 	__ASM volatile ("mrs %0, primask" : "=r" (istat) );
 261:Generated_Source\PSoC5/SimpleSystem_cortex_mx_ee_cpu.inc **** 	__ASM volatile ("cpsid i");
 262:Generated_Source\PSoC5/SimpleSystem_cortex_mx_ee_cpu.inc **** #endif	/* !__KEIL__ */
 263:Generated_Source\PSoC5/SimpleSystem_cortex_mx_ee_cpu.inc **** #endif	/* !__CCS__ */
 264:Generated_Source\PSoC5/SimpleSystem_cortex_mx_ee_cpu.inc **** #endif	/* !__IAR__ */
 265:Generated_Source\PSoC5/SimpleSystem_cortex_mx_ee_cpu.inc **** #ifdef __CCS__
 266:Generated_Source\PSoC5/SimpleSystem_cortex_mx_ee_cpu.inc **** 	return 0;
 267:Generated_Source\PSoC5/SimpleSystem_cortex_mx_ee_cpu.inc **** #else
 268:Generated_Source\PSoC5/SimpleSystem_cortex_mx_ee_cpu.inc **** 	return istat;
 269:Generated_Source\PSoC5/SimpleSystem_cortex_mx_ee_cpu.inc **** #endif
 270:Generated_Source\PSoC5/SimpleSystem_cortex_mx_ee_cpu.inc **** }
 271:Generated_Source\PSoC5/SimpleSystem_cortex_mx_ee_cpu.inc **** 
 272:Generated_Source\PSoC5/SimpleSystem_cortex_mx_ee_cpu.inc **** /**
 273:Generated_Source\PSoC5/SimpleSystem_cortex_mx_ee_cpu.inc ****  * Return true (not 0) if IRQs are enabled, 0 (false) if IRQ are disabled.
 274:Generated_Source\PSoC5/SimpleSystem_cortex_mx_ee_cpu.inc ****  */
 275:Generated_Source\PSoC5/SimpleSystem_cortex_mx_ee_cpu.inc **** __INLINE__ EE_UINT32  EE_cortex_mx_get_IRQ_enabled(void)
 276:Generated_Source\PSoC5/SimpleSystem_cortex_mx_ee_cpu.inc **** {
 277:Generated_Source\PSoC5/SimpleSystem_cortex_mx_ee_cpu.inc **** #ifndef __CCS__
 278:Generated_Source\PSoC5/SimpleSystem_cortex_mx_ee_cpu.inc **** 	EE_UREG ie;
 279:Generated_Source\PSoC5/SimpleSystem_cortex_mx_ee_cpu.inc **** #endif
 280:Generated_Source\PSoC5/SimpleSystem_cortex_mx_ee_cpu.inc **** #ifdef __IAR__
 281:Generated_Source\PSoC5/SimpleSystem_cortex_mx_ee_cpu.inc **** 	ie = __get_PRIMASK();
 282:Generated_Source\PSoC5/SimpleSystem_cortex_mx_ee_cpu.inc **** #else	/* __IAR__ */
 283:Generated_Source\PSoC5/SimpleSystem_cortex_mx_ee_cpu.inc **** #ifdef __CCS__
 284:Generated_Source\PSoC5/SimpleSystem_cortex_mx_ee_cpu.inc **** 	__ASM ("    MRS     r0, PRIMASK\n"
 285:Generated_Source\PSoC5/SimpleSystem_cortex_mx_ee_cpu.inc **** 	       "    EOR     r0, #1\n"
 286:Generated_Source\PSoC5/SimpleSystem_cortex_mx_ee_cpu.inc **** 	       "    bx      lr\n");
 287:Generated_Source\PSoC5/SimpleSystem_cortex_mx_ee_cpu.inc **** #else	/* __CCS__ */
 288:Generated_Source\PSoC5/SimpleSystem_cortex_mx_ee_cpu.inc **** #ifdef __KEIL__
 289:Generated_Source\PSoC5/SimpleSystem_cortex_mx_ee_cpu.inc **** 	register EE_FREG PRIMASK __ASM("primask");
 290:Generated_Source\PSoC5/SimpleSystem_cortex_mx_ee_cpu.inc **** 	ie = PRIMASK;
ARM GAS  C:\Users\Reza\AppData\Local\Temp\cc7uXqLk.s 			page 8


 291:Generated_Source\PSoC5/SimpleSystem_cortex_mx_ee_cpu.inc **** #else	/* __KEIL__ */
 292:Generated_Source\PSoC5/SimpleSystem_cortex_mx_ee_cpu.inc **** 	__ASM volatile ("MRS %0, primask" : "=r" (ie) );
 293:Generated_Source\PSoC5/SimpleSystem_cortex_mx_ee_cpu.inc **** #endif	/* !__KEIL__ */
 294:Generated_Source\PSoC5/SimpleSystem_cortex_mx_ee_cpu.inc **** #endif	/* !__CCS__ */
 295:Generated_Source\PSoC5/SimpleSystem_cortex_mx_ee_cpu.inc **** #endif	/* !__IAR__ */
 296:Generated_Source\PSoC5/SimpleSystem_cortex_mx_ee_cpu.inc **** #ifdef __CCS__
 297:Generated_Source\PSoC5/SimpleSystem_cortex_mx_ee_cpu.inc **** 	return 0;
 298:Generated_Source\PSoC5/SimpleSystem_cortex_mx_ee_cpu.inc **** #else
 299:Generated_Source\PSoC5/SimpleSystem_cortex_mx_ee_cpu.inc **** 	return EE_cortex_mx_are_IRQs_enabled(ie);
 300:Generated_Source\PSoC5/SimpleSystem_cortex_mx_ee_cpu.inc **** #endif
 301:Generated_Source\PSoC5/SimpleSystem_cortex_mx_ee_cpu.inc **** }
 302:Generated_Source\PSoC5/SimpleSystem_cortex_mx_ee_cpu.inc **** 
 303:Generated_Source\PSoC5/SimpleSystem_cortex_mx_ee_cpu.inc **** __INLINE__ EE_TYPEISR2PRIO  EE_cortex_mx_get_int_prio(void)
 304:Generated_Source\PSoC5/SimpleSystem_cortex_mx_ee_cpu.inc **** {
 305:Generated_Source\PSoC5/SimpleSystem_cortex_mx_ee_cpu.inc **** #ifdef __CORTEX_M4__
 306:Generated_Source\PSoC5/SimpleSystem_cortex_mx_ee_cpu.inc **** 
 307:Generated_Source\PSoC5/SimpleSystem_cortex_mx_ee_cpu.inc **** #ifndef __CCS__
 308:Generated_Source\PSoC5/SimpleSystem_cortex_mx_ee_cpu.inc **** 	register EE_UREG prio;
 309:Generated_Source\PSoC5/SimpleSystem_cortex_mx_ee_cpu.inc **** #ifdef	__KEIL__
 310:Generated_Source\PSoC5/SimpleSystem_cortex_mx_ee_cpu.inc **** 	register EE_FREG BASEPRI __ASM("basepri");
 311:Generated_Source\PSoC5/SimpleSystem_cortex_mx_ee_cpu.inc **** #endif
 312:Generated_Source\PSoC5/SimpleSystem_cortex_mx_ee_cpu.inc **** 
 313:Generated_Source\PSoC5/SimpleSystem_cortex_mx_ee_cpu.inc **** #endif
 314:Generated_Source\PSoC5/SimpleSystem_cortex_mx_ee_cpu.inc **** 
 315:Generated_Source\PSoC5/SimpleSystem_cortex_mx_ee_cpu.inc **** #ifdef __CCS__
 316:Generated_Source\PSoC5/SimpleSystem_cortex_mx_ee_cpu.inc **** 	/* NVIC_INT_PRI_S = 5 */
 317:Generated_Source\PSoC5/SimpleSystem_cortex_mx_ee_cpu.inc **** 	__ASM ("    MRS     R0, BASEPRI\n"
 318:Generated_Source\PSoC5/SimpleSystem_cortex_mx_ee_cpu.inc **** 	       "    ASR     R0, #5\n"
 319:Generated_Source\PSoC5/SimpleSystem_cortex_mx_ee_cpu.inc **** 	       "    BLX     LR\n");
 320:Generated_Source\PSoC5/SimpleSystem_cortex_mx_ee_cpu.inc **** #else	/* __CCS__ */
 321:Generated_Source\PSoC5/SimpleSystem_cortex_mx_ee_cpu.inc **** #ifdef __KEIL__
 322:Generated_Source\PSoC5/SimpleSystem_cortex_mx_ee_cpu.inc **** 	prio = BASEPRI;
 323:Generated_Source\PSoC5/SimpleSystem_cortex_mx_ee_cpu.inc **** #else	/* __KEIL__ */
 324:Generated_Source\PSoC5/SimpleSystem_cortex_mx_ee_cpu.inc **** #ifdef __GNU__
 325:Generated_Source\PSoC5/SimpleSystem_cortex_mx_ee_cpu.inc **** 	__ASM volatile("MRS %0, BASEPRI" : "=r" (prio) :: );
  82              		.loc 2 325 0
  83              		.syntax unified
  84              	@ 325 "Generated_Source\PSoC5/SimpleSystem_cortex_mx_ee_cpu.inc" 1
  85 000c EFF31184 		MRS r4, BASEPRI
  86              	@ 0 "" 2
  87              	.LVL2:
  88              		.thumb
  89              		.syntax unified
  90              	.LBE107:
  91              	.LBE106:
  92              	.LBB108:
  93              	.LBB109:
 326:Generated_Source\PSoC5/SimpleSystem_cortex_mx_ee_cpu.inc **** #else
 327:Generated_Source\PSoC5/SimpleSystem_cortex_mx_ee_cpu.inc **** 	__ASM volatile("MRS %0, BASEPRI" :: "=r" (prio));
 328:Generated_Source\PSoC5/SimpleSystem_cortex_mx_ee_cpu.inc **** #endif	/* !__GNU__ */
 329:Generated_Source\PSoC5/SimpleSystem_cortex_mx_ee_cpu.inc **** #endif	/* !__KEIL__ */
 330:Generated_Source\PSoC5/SimpleSystem_cortex_mx_ee_cpu.inc **** #endif	/* !__CCS__ */
 331:Generated_Source\PSoC5/SimpleSystem_cortex_mx_ee_cpu.inc **** 
 332:Generated_Source\PSoC5/SimpleSystem_cortex_mx_ee_cpu.inc **** #ifdef __CCS__
 333:Generated_Source\PSoC5/SimpleSystem_cortex_mx_ee_cpu.inc **** 	return 0;
 334:Generated_Source\PSoC5/SimpleSystem_cortex_mx_ee_cpu.inc **** #else
 335:Generated_Source\PSoC5/SimpleSystem_cortex_mx_ee_cpu.inc **** 	return prio >> NVIC_INT_PRI_S;
ARM GAS  C:\Users\Reza\AppData\Local\Temp\cc7uXqLk.s 			page 9


 336:Generated_Source\PSoC5/SimpleSystem_cortex_mx_ee_cpu.inc **** #endif
 337:Generated_Source\PSoC5/SimpleSystem_cortex_mx_ee_cpu.inc **** 
 338:Generated_Source\PSoC5/SimpleSystem_cortex_mx_ee_cpu.inc **** #else	/* __CORTEX_M4__ */
 339:Generated_Source\PSoC5/SimpleSystem_cortex_mx_ee_cpu.inc **** 	return 0;
 340:Generated_Source\PSoC5/SimpleSystem_cortex_mx_ee_cpu.inc **** #endif	/* !__CORTEX_M4__ */
 341:Generated_Source\PSoC5/SimpleSystem_cortex_mx_ee_cpu.inc **** }
 342:Generated_Source\PSoC5/SimpleSystem_cortex_mx_ee_cpu.inc **** 
 343:Generated_Source\PSoC5/SimpleSystem_cortex_mx_ee_cpu.inc **** __INLINE__ void  EE_cortex_mx_set_int_prio(
 344:Generated_Source\PSoC5/SimpleSystem_cortex_mx_ee_cpu.inc ****   EE_TYPEISR2PRIO prio
 345:Generated_Source\PSoC5/SimpleSystem_cortex_mx_ee_cpu.inc **** )
 346:Generated_Source\PSoC5/SimpleSystem_cortex_mx_ee_cpu.inc **** {
 347:Generated_Source\PSoC5/SimpleSystem_cortex_mx_ee_cpu.inc **** #ifdef __CORTEX_M4__
 348:Generated_Source\PSoC5/SimpleSystem_cortex_mx_ee_cpu.inc **** #ifdef __CCS__
 349:Generated_Source\PSoC5/SimpleSystem_cortex_mx_ee_cpu.inc **** 	/* NVIC_INT_PRI_S = 5 */
 350:Generated_Source\PSoC5/SimpleSystem_cortex_mx_ee_cpu.inc **** 	__ASM ("    LSL    R0, #5\n"
 351:Generated_Source\PSoC5/SimpleSystem_cortex_mx_ee_cpu.inc **** 	       "    MSR    BASEPRI, R0\n");
 352:Generated_Source\PSoC5/SimpleSystem_cortex_mx_ee_cpu.inc **** #else	/* __CCS__ */
 353:Generated_Source\PSoC5/SimpleSystem_cortex_mx_ee_cpu.inc **** #ifdef __KEIL__
 354:Generated_Source\PSoC5/SimpleSystem_cortex_mx_ee_cpu.inc **** 	register EE_FREG BASEPRI __ASM("basepri");
 355:Generated_Source\PSoC5/SimpleSystem_cortex_mx_ee_cpu.inc **** 	BASEPRI = (prio << NVIC_INT_PRI_S);
 356:Generated_Source\PSoC5/SimpleSystem_cortex_mx_ee_cpu.inc **** #else	/* __KEIL__ */
 357:Generated_Source\PSoC5/SimpleSystem_cortex_mx_ee_cpu.inc **** #ifdef __GNU__
 358:Generated_Source\PSoC5/SimpleSystem_cortex_mx_ee_cpu.inc **** 	__ASM volatile("MSR BASEPRI, %0" :: "r" (prio << NVIC_INT_PRI_S) : );
 359:Generated_Source\PSoC5/SimpleSystem_cortex_mx_ee_cpu.inc **** #else
 360:Generated_Source\PSoC5/SimpleSystem_cortex_mx_ee_cpu.inc **** 	__ASM volatile("MSR BASEPRI, %0" :: "r" (prio << NVIC_INT_PRI_S));
 361:Generated_Source\PSoC5/SimpleSystem_cortex_mx_ee_cpu.inc **** #endif	/* !__GNU__ */
 362:Generated_Source\PSoC5/SimpleSystem_cortex_mx_ee_cpu.inc **** #endif	/* !__KEIL__ */
 363:Generated_Source\PSoC5/SimpleSystem_cortex_mx_ee_cpu.inc **** #endif	/* !__CCS__ */
 364:Generated_Source\PSoC5/SimpleSystem_cortex_mx_ee_cpu.inc **** #endif	/* __CORTEX_M4__ */
 365:Generated_Source\PSoC5/SimpleSystem_cortex_mx_ee_cpu.inc **** }
 366:Generated_Source\PSoC5/SimpleSystem_cortex_mx_ee_cpu.inc **** 
 367:Generated_Source\PSoC5/SimpleSystem_cortex_mx_ee_cpu.inc **** __INLINE__ EE_TYPEISR2PRIO  EE_cortex_mx_get_isr_prio(
 368:Generated_Source\PSoC5/SimpleSystem_cortex_mx_ee_cpu.inc ****   void
 369:Generated_Source\PSoC5/SimpleSystem_cortex_mx_ee_cpu.inc **** )
 370:Generated_Source\PSoC5/SimpleSystem_cortex_mx_ee_cpu.inc **** {
 371:Generated_Source\PSoC5/SimpleSystem_cortex_mx_ee_cpu.inc **** #ifdef __CORTEX_M4__
 372:Generated_Source\PSoC5/SimpleSystem_cortex_mx_ee_cpu.inc ****   register EE_UREG vectact = NVIC_INT_CTRL_R & NVIC_INT_CTRL_VEC_ACT_M;
  94              		.loc 2 372 0
  95 0010 1E4B     		ldr	r3, .L9
  96 0012 1B68     		ldr	r3, [r3]
  97 0014 DBB2     		uxtb	r3, r3
  98              	.LVL3:
 373:Generated_Source\PSoC5/SimpleSystem_cortex_mx_ee_cpu.inc ****   register EE_TYPEISR2PRIO prio = 0;
 374:Generated_Source\PSoC5/SimpleSystem_cortex_mx_ee_cpu.inc **** 
 375:Generated_Source\PSoC5/SimpleSystem_cortex_mx_ee_cpu.inc ****   if (vectact > EE_CORTEX_MX_SYSTICK_EXC_NUM) {
  99              		.loc 2 375 0
 100 0016 0F2B     		cmp	r3, #15
 101 0018 10D9     		bls	.L4
 376:Generated_Source\PSoC5/SimpleSystem_cortex_mx_ee_cpu.inc ****     vectact -= EE_CORTEX_MX_SYSTICK_EXC_NUM + 1;
 102              		.loc 2 376 0
 103 001a 103B     		subs	r3, r3, #16
 104              	.LVL4:
 377:Generated_Source\PSoC5/SimpleSystem_cortex_mx_ee_cpu.inc ****     prio = NVIC_GET_PRI(vectact);
 105              		.loc 2 377 0
 106 001c 23F00302 		bic	r2, r3, #3
 107 0020 02F16042 		add	r2, r2, #-536870912
 108 0024 02F56442 		add	r2, r2, #58368
ARM GAS  C:\Users\Reza\AppData\Local\Temp\cc7uXqLk.s 			page 10


 109 0028 1168     		ldr	r1, [r2]
 110 002a DB00     		lsls	r3, r3, #3
 111              	.LVL5:
 112 002c 03F01803 		and	r3, r3, #24
 113 0030 E022     		movs	r2, #224
 114 0032 9A40     		lsls	r2, r2, r3
 115 0034 0A40     		ands	r2, r2, r1
 116 0036 22FA03F3 		lsr	r3, r2, r3
 117              	.LVL6:
 118 003a 06E0     		b	.L5
 119              	.LVL7:
 120              	.L4:
 378:Generated_Source\PSoC5/SimpleSystem_cortex_mx_ee_cpu.inc ****   }
 379:Generated_Source\PSoC5/SimpleSystem_cortex_mx_ee_cpu.inc **** #ifdef	__USE_SYSTICK__
 380:Generated_Source\PSoC5/SimpleSystem_cortex_mx_ee_cpu.inc ****   else if (vectact == EE_CORTEX_MX_SYSTICK_EXC_NUM) {
 121              		.loc 2 380 0
 122 003c 0F2B     		cmp	r3, #15
 123 003e 03D1     		bne	.L8
 381:Generated_Source\PSoC5/SimpleSystem_cortex_mx_ee_cpu.inc ****     prio = NVIC_SYS_PRI3_R >> NVIC_SYS_PRI3_TICK_S;
 124              		.loc 2 381 0
 125 0040 134B     		ldr	r3, .L9+4
 126              	.LVL8:
 127 0042 1B68     		ldr	r3, [r3]
 128 0044 1B0E     		lsrs	r3, r3, #24
 129              	.LVL9:
 130 0046 00E0     		b	.L5
 131              	.LVL10:
 132              	.L8:
 373:Generated_Source\PSoC5/SimpleSystem_cortex_mx_ee_cpu.inc **** 
 133              		.loc 2 373 0
 134 0048 0023     		movs	r3, #0
 135              	.LVL11:
 136              	.L5:
 137              	.LBE109:
 138              	.LBE108:
 139              	.LBB110:
 140              	.LBB111:
 358:Generated_Source\PSoC5/SimpleSystem_cortex_mx_ee_cpu.inc **** #else
 141              		.loc 2 358 0
 142              		.syntax unified
 143              	@ 358 "Generated_Source\PSoC5/SimpleSystem_cortex_mx_ee_cpu.inc" 1
 144 004a 83F31188 		MSR BASEPRI, r3
 145              	@ 0 "" 2
 146              		.thumb
 147              		.syntax unified
 148              	.LBE111:
 149              	.LBE110:
 150              	.LBB112:
 151              	.LBB113:
 152              		.file 3 "Generated_Source\\PSoC5/SimpleSystem_common_ee_irqstub.inc"
   1:Generated_Source\PSoC5/SimpleSystem_common_ee_irqstub.inc **** /* ###*B*###
   2:Generated_Source\PSoC5/SimpleSystem_common_ee_irqstub.inc ****  * ERIKA Enterprise - a tiny RTOS for small microcontrollers
   3:Generated_Source\PSoC5/SimpleSystem_common_ee_irqstub.inc ****  *
   4:Generated_Source\PSoC5/SimpleSystem_common_ee_irqstub.inc ****  * Copyright (C) 2002-2010  Evidence Srl
   5:Generated_Source\PSoC5/SimpleSystem_common_ee_irqstub.inc ****  *
   6:Generated_Source\PSoC5/SimpleSystem_common_ee_irqstub.inc ****  * This file is part of ERIKA Enterprise.
   7:Generated_Source\PSoC5/SimpleSystem_common_ee_irqstub.inc ****  *
ARM GAS  C:\Users\Reza\AppData\Local\Temp\cc7uXqLk.s 			page 11


   8:Generated_Source\PSoC5/SimpleSystem_common_ee_irqstub.inc ****  * ERIKA Enterprise is free software; you can redistribute it
   9:Generated_Source\PSoC5/SimpleSystem_common_ee_irqstub.inc ****  * and/or modify it under the terms of the GNU General Public License
  10:Generated_Source\PSoC5/SimpleSystem_common_ee_irqstub.inc ****  * version 2 as published by the Free Software Foundation,
  11:Generated_Source\PSoC5/SimpleSystem_common_ee_irqstub.inc ****  * (with a special exception described below).
  12:Generated_Source\PSoC5/SimpleSystem_common_ee_irqstub.inc ****  *
  13:Generated_Source\PSoC5/SimpleSystem_common_ee_irqstub.inc ****  * Linking this code statically or dynamically with other modules is
  14:Generated_Source\PSoC5/SimpleSystem_common_ee_irqstub.inc ****  * making a combined work based on this code.  Thus, the terms and
  15:Generated_Source\PSoC5/SimpleSystem_common_ee_irqstub.inc ****  * conditions of the GNU General Public License cover the whole
  16:Generated_Source\PSoC5/SimpleSystem_common_ee_irqstub.inc ****  * combination.
  17:Generated_Source\PSoC5/SimpleSystem_common_ee_irqstub.inc ****  *
  18:Generated_Source\PSoC5/SimpleSystem_common_ee_irqstub.inc ****  * As a special exception, the copyright holders of this library give you
  19:Generated_Source\PSoC5/SimpleSystem_common_ee_irqstub.inc ****  * permission to link this code with independent modules to produce an
  20:Generated_Source\PSoC5/SimpleSystem_common_ee_irqstub.inc ****  * executable, regardless of the license terms of these independent
  21:Generated_Source\PSoC5/SimpleSystem_common_ee_irqstub.inc ****  * modules, and to copy and distribute the resulting executable under
  22:Generated_Source\PSoC5/SimpleSystem_common_ee_irqstub.inc ****  * terms of your choice, provided that you also meet, for each linked
  23:Generated_Source\PSoC5/SimpleSystem_common_ee_irqstub.inc ****  * independent module, the terms and conditions of the license of that
  24:Generated_Source\PSoC5/SimpleSystem_common_ee_irqstub.inc ****  * module.  An independent module is a module which is not derived from
  25:Generated_Source\PSoC5/SimpleSystem_common_ee_irqstub.inc ****  * or based on this library.  If you modify this code, you may extend
  26:Generated_Source\PSoC5/SimpleSystem_common_ee_irqstub.inc ****  * this exception to your version of the code, but you are not
  27:Generated_Source\PSoC5/SimpleSystem_common_ee_irqstub.inc ****  * obligated to do so.  If you do not wish to do so, delete this
  28:Generated_Source\PSoC5/SimpleSystem_common_ee_irqstub.inc ****  * exception statement from your version.
  29:Generated_Source\PSoC5/SimpleSystem_common_ee_irqstub.inc ****  *
  30:Generated_Source\PSoC5/SimpleSystem_common_ee_irqstub.inc ****  * ERIKA Enterprise is distributed in the hope that it will be
  31:Generated_Source\PSoC5/SimpleSystem_common_ee_irqstub.inc ****  * useful, but WITHOUT ANY WARRANTY; without even the implied warranty
  32:Generated_Source\PSoC5/SimpleSystem_common_ee_irqstub.inc ****  * of MERCHANTABILITY or FITNESS FOR A PARTICULAR PURPOSE.  See the
  33:Generated_Source\PSoC5/SimpleSystem_common_ee_irqstub.inc ****  * GNU General Public License version 2 for more details.
  34:Generated_Source\PSoC5/SimpleSystem_common_ee_irqstub.inc ****  *
  35:Generated_Source\PSoC5/SimpleSystem_common_ee_irqstub.inc ****  * You should have received a copy of the GNU General Public License
  36:Generated_Source\PSoC5/SimpleSystem_common_ee_irqstub.inc ****  * version 2 along with ERIKA Enterprise; if not, write to the
  37:Generated_Source\PSoC5/SimpleSystem_common_ee_irqstub.inc ****  * Free Software Foundation, Inc., 51 Franklin Street, Fifth Floor,
  38:Generated_Source\PSoC5/SimpleSystem_common_ee_irqstub.inc ****  * Boston, MA 02110-1301 USA.
  39:Generated_Source\PSoC5/SimpleSystem_common_ee_irqstub.inc ****  * ###*E*### */
  40:Generated_Source\PSoC5/SimpleSystem_common_ee_irqstub.inc **** 
  41:Generated_Source\PSoC5/SimpleSystem_common_ee_irqstub.inc **** /*
  42:Generated_Source\PSoC5/SimpleSystem_common_ee_irqstub.inc ****  * Some IRQ-related stuff.
  43:Generated_Source\PSoC5/SimpleSystem_common_ee_irqstub.inc ****  * Author: 2009-2010,  Bernardo  Dal Seno
  44:Generated_Source\PSoC5/SimpleSystem_common_ee_irqstub.inc ****  */
  45:Generated_Source\PSoC5/SimpleSystem_common_ee_irqstub.inc **** 
  46:Generated_Source\PSoC5/SimpleSystem_common_ee_irqstub.inc **** /*
  47:Generated_Source\PSoC5/SimpleSystem_common_ee_irqstub.inc ****  * PSoC Port and API Generation
  48:Generated_Source\PSoC5/SimpleSystem_common_ee_irqstub.inc ****  * Carlos Fernando Meier Martinez
  49:Generated_Source\PSoC5/SimpleSystem_common_ee_irqstub.inc ****  * Hochschule Darmstadt, Germany. 2017.
  50:Generated_Source\PSoC5/SimpleSystem_common_ee_irqstub.inc ****  */
  51:Generated_Source\PSoC5/SimpleSystem_common_ee_irqstub.inc **** 
  52:Generated_Source\PSoC5/SimpleSystem_common_ee_irqstub.inc **** /*******************************************************************************
  53:Generated_Source\PSoC5/SimpleSystem_common_ee_irqstub.inc ****  *                        !!!WARNING!!!
  54:Generated_Source\PSoC5/SimpleSystem_common_ee_irqstub.inc ****  * This header depends on "cpu/common/inc/ee_context.inc" or your own
  55:Generated_Source\PSoC5/SimpleSystem_common_ee_irqstub.inc ****  * implementation of the same. You should include it file before including this
  56:Generated_Source\PSoC5/SimpleSystem_common_ee_irqstub.inc ****  * file
  57:Generated_Source\PSoC5/SimpleSystem_common_ee_irqstub.inc ****  ******************************************************************************/
  58:Generated_Source\PSoC5/SimpleSystem_common_ee_irqstub.inc **** 
  59:Generated_Source\PSoC5/SimpleSystem_common_ee_irqstub.inc **** #ifndef PKG_CPU_COMMON_INC_EE_IRQSTUB_H
  60:Generated_Source\PSoC5/SimpleSystem_common_ee_irqstub.inc **** #define PKG_CPU_COMMON_INC_EE_IRQSTUB_H
  61:Generated_Source\PSoC5/SimpleSystem_common_ee_irqstub.inc **** 
  62:Generated_Source\PSoC5/SimpleSystem_common_ee_irqstub.inc **** /* this bring EE_IRQ_nesting_level definition */
  63:Generated_Source\PSoC5/SimpleSystem_common_ee_irqstub.inc **** #include "SimpleSystem_common_ee_primitives.inc"
  64:Generated_Source\PSoC5/SimpleSystem_common_ee_irqstub.inc **** 
ARM GAS  C:\Users\Reza\AppData\Local\Temp\cc7uXqLk.s 			page 12


  65:Generated_Source\PSoC5/SimpleSystem_common_ee_irqstub.inc **** /* True if we are inside an interrupt-serving routine */
  66:Generated_Source\PSoC5/SimpleSystem_common_ee_irqstub.inc **** __INLINE__ EE_TYPEBOOL  EE_is_inside_ISR_call( void )
  67:Generated_Source\PSoC5/SimpleSystem_common_ee_irqstub.inc **** {
  68:Generated_Source\PSoC5/SimpleSystem_common_ee_irqstub.inc ****   return (EE_IRQ_nesting_level > 0U);
  69:Generated_Source\PSoC5/SimpleSystem_common_ee_irqstub.inc **** }
  70:Generated_Source\PSoC5/SimpleSystem_common_ee_irqstub.inc **** 
  71:Generated_Source\PSoC5/SimpleSystem_common_ee_irqstub.inc **** 
  72:Generated_Source\PSoC5/SimpleSystem_common_ee_irqstub.inc **** /* EE_decrement_IRQ_nesting_level() and EE_increment_IRQ_nesting_level() are
  73:Generated_Source\PSoC5/SimpleSystem_common_ee_irqstub.inc ****  * used to keep track of the current IRQ nesting level.
  74:Generated_Source\PSoC5/SimpleSystem_common_ee_irqstub.inc ****  * EE_std_enableIRQ_nested() and EE_std_disableIRQ_nested() are used to control
  75:Generated_Source\PSoC5/SimpleSystem_common_ee_irqstub.inc ****  * when IRQ nesting is enabled.
  76:Generated_Source\PSoC5/SimpleSystem_common_ee_irqstub.inc ****  */
  77:Generated_Source\PSoC5/SimpleSystem_common_ee_irqstub.inc **** #if defined(__AS_SC4__)
  78:Generated_Source\PSoC5/SimpleSystem_common_ee_irqstub.inc **** /* For SC4 the nesting level is updated inside the prestub and postub */
  79:Generated_Source\PSoC5/SimpleSystem_common_ee_irqstub.inc **** __INLINE__ void  EE_decrement_IRQ_nesting_level(void) {}
  80:Generated_Source\PSoC5/SimpleSystem_common_ee_irqstub.inc **** __INLINE__ void  EE_increment_IRQ_nesting_level(void) {}
  81:Generated_Source\PSoC5/SimpleSystem_common_ee_irqstub.inc **** __INLINE__ void  EE_std_enableIRQ_nested(void) {}
  82:Generated_Source\PSoC5/SimpleSystem_common_ee_irqstub.inc **** __INLINE__ void  EE_std_disableIRQ_nested(void) {}
  83:Generated_Source\PSoC5/SimpleSystem_common_ee_irqstub.inc **** #elif defined(__ALLOW_NESTED_IRQ__)
  84:Generated_Source\PSoC5/SimpleSystem_common_ee_irqstub.inc **** __INLINE__ void  EE_decrement_IRQ_nesting_level(void) { --EE_IRQ_nesting_level; }
  85:Generated_Source\PSoC5/SimpleSystem_common_ee_irqstub.inc **** __INLINE__ void  EE_increment_IRQ_nesting_level(void) { ++EE_IRQ_nesting_level; }
 153              		.loc 3 85 0
 154 004e 114A     		ldr	r2, .L9+8
 155 0050 1368     		ldr	r3, [r2]
 156 0052 0133     		adds	r3, r3, #1
 157 0054 1360     		str	r3, [r2]
 158              	.LBE113:
 159              	.LBE112:
  25:source\asw/main.c **** {
 160              		.loc 1 25 0
 161 0056 012B     		cmp	r3, #1
 162 0058 01D1     		bne	.L6
  25:source\asw/main.c **** {
 163              		.loc 1 25 0 is_stmt 0 discriminator 1
 164 005a FFF7FEFF 		bl	EE_cortex_mx_change_IRQ_stack
 165              	.LVL12:
 166              	.L6:
 167              	.LBB114:
 168              	.LBB115:
 191:Generated_Source\PSoC5/SimpleSystem_cortex_mx_ee_cpu.inc **** #endif	/* !__KEIL__ */
 169              		.loc 2 191 0 is_stmt 1 discriminator 3
 170              		.syntax unified
 171              	@ 191 "Generated_Source\PSoC5/SimpleSystem_cortex_mx_ee_cpu.inc" 1
 172 005e 62B6     		cpsie i
 173              	@ 0 "" 2
 174              		.thumb
 175              		.syntax unified
 176              	.LBE115:
 177              	.LBE114:
  25:source\asw/main.c **** {
 178              		.loc 1 25 0 discriminator 3
 179 0060 FFF7FEFF 		bl	ISR2_systick_handler
 180              	.LVL13:
 181              	.LBB116:
 182              	.LBB117:
 211:Generated_Source\PSoC5/SimpleSystem_cortex_mx_ee_cpu.inc **** #endif	/* !__KEIL__ */
 183              		.loc 2 211 0 discriminator 3
ARM GAS  C:\Users\Reza\AppData\Local\Temp\cc7uXqLk.s 			page 13


 184              		.syntax unified
 185              	@ 211 "Generated_Source\PSoC5/SimpleSystem_cortex_mx_ee_cpu.inc" 1
 186 0064 72B6     		cpsid i
 187              	@ 0 "" 2
 188              	.LVL14:
 189              		.thumb
 190              		.syntax unified
 191              	.LBE117:
 192              	.LBE116:
 193              	.LBB118:
 194              	.LBB119:
 358:Generated_Source\PSoC5/SimpleSystem_cortex_mx_ee_cpu.inc **** #else
 195              		.loc 2 358 0 discriminator 3
 196              		.syntax unified
 197              	@ 358 "Generated_Source\PSoC5/SimpleSystem_cortex_mx_ee_cpu.inc" 1
 198 0066 84F31188 		MSR BASEPRI, r4
 199              	@ 0 "" 2
 200              	.LVL15:
 201              		.thumb
 202              		.syntax unified
 203              	.LBE119:
 204              	.LBE118:
 205              	.LBB120:
 206              	.LBB121:
  86:Generated_Source\PSoC5/SimpleSystem_common_ee_irqstub.inc **** /*  EE_std_enableIRQ_nested() and EE_std_disableIRQ_nested() must be defined in
  87:Generated_Source\PSoC5/SimpleSystem_common_ee_irqstub.inc ****  *  the platform-dependent part, as they dependend on the particular way
  88:Generated_Source\PSoC5/SimpleSystem_common_ee_irqstub.inc ****  *  interrupts are handled by the CPU. */
  89:Generated_Source\PSoC5/SimpleSystem_common_ee_irqstub.inc **** #else
  90:Generated_Source\PSoC5/SimpleSystem_common_ee_irqstub.inc **** __INLINE__ void  EE_decrement_IRQ_nesting_level(void) { EE_IRQ_nesting_level = 0U; }
  91:Generated_Source\PSoC5/SimpleSystem_common_ee_irqstub.inc **** __INLINE__ void  EE_increment_IRQ_nesting_level(void) { EE_IRQ_nesting_level = 1U; }
  92:Generated_Source\PSoC5/SimpleSystem_common_ee_irqstub.inc **** __INLINE__ void  EE_std_enableIRQ_nested(void) {}
  93:Generated_Source\PSoC5/SimpleSystem_common_ee_irqstub.inc **** __INLINE__ void  EE_std_disableIRQ_nested(void) {}
  94:Generated_Source\PSoC5/SimpleSystem_common_ee_irqstub.inc **** #endif
  95:Generated_Source\PSoC5/SimpleSystem_common_ee_irqstub.inc **** 
  96:Generated_Source\PSoC5/SimpleSystem_common_ee_irqstub.inc **** #if (defined(__OO_BCC1__)) || (defined(__OO_BCC2__)) || (defined(__OO_ECC1__)) \
  97:Generated_Source\PSoC5/SimpleSystem_common_ee_irqstub.inc ****   || (defined(__OO_ECC2__)) || (defined(__AS_SC4__))
  98:Generated_Source\PSoC5/SimpleSystem_common_ee_irqstub.inc **** /* Function to be called at the end of a function service interrupt, to execute
  99:Generated_Source\PSoC5/SimpleSystem_common_ee_irqstub.inc ****    clean-up specifiend in Autosar standard */
 100:Generated_Source\PSoC5/SimpleSystem_common_ee_irqstub.inc **** __INLINE__ void  EE_std_end_IRQ_post_stub(void)
 101:Generated_Source\PSoC5/SimpleSystem_common_ee_irqstub.inc **** {
 102:Generated_Source\PSoC5/SimpleSystem_common_ee_irqstub.inc ****   EE_IRQ_end_post_stub();
 207              		.loc 3 102 0 discriminator 3
 208 006a FFF7FEFF 		bl	EE_IRQ_end_post_stub
 209              	.LVL16:
 210              	.LBE121:
 211              	.LBE120:
 212              	.LBB122:
 213              	.LBB123:
  84:Generated_Source\PSoC5/SimpleSystem_common_ee_irqstub.inc **** __INLINE__ void  EE_increment_IRQ_nesting_level(void) { ++EE_IRQ_nesting_level; }
 214              		.loc 3 84 0 discriminator 3
 215 006e 094A     		ldr	r2, .L9+8
 216 0070 1368     		ldr	r3, [r2]
 217 0072 013B     		subs	r3, r3, #1
 218 0074 1360     		str	r3, [r2]
 219              	.LBE123:
 220              	.LBE122:
  25:source\asw/main.c **** {
ARM GAS  C:\Users\Reza\AppData\Local\Temp\cc7uXqLk.s 			page 14


 221              		.loc 1 25 0 discriminator 3
 222 0076 1BB9     		cbnz	r3, .L7
  25:source\asw/main.c **** {
 223              		.loc 1 25 0 is_stmt 0 discriminator 4
 224 0078 FFF7FEFF 		bl	EE_cortex_mx_change_IRQ_stack_back
 225              	.LVL17:
 226              	.LBB124:
 227              	.LBB125:
 228              		.file 4 "Generated_Source\\PSoC5/SimpleSystem_cortex_mx_ee_irq_cng_cont.inc"
   1:Generated_Source\PSoC5/SimpleSystem_cortex_mx_ee_irq_cng_cont.inc **** /* ###*B*###
   2:Generated_Source\PSoC5/SimpleSystem_cortex_mx_ee_irq_cng_cont.inc ****  * ERIKA Enterprise - a tiny RTOS for small microcontrollers
   3:Generated_Source\PSoC5/SimpleSystem_cortex_mx_ee_irq_cng_cont.inc ****  *
   4:Generated_Source\PSoC5/SimpleSystem_cortex_mx_ee_irq_cng_cont.inc ****  * Copyright (C) 2002-2011  Evidence Srl
   5:Generated_Source\PSoC5/SimpleSystem_cortex_mx_ee_irq_cng_cont.inc ****  *
   6:Generated_Source\PSoC5/SimpleSystem_cortex_mx_ee_irq_cng_cont.inc ****  * This file is part of ERIKA Enterprise.
   7:Generated_Source\PSoC5/SimpleSystem_cortex_mx_ee_irq_cng_cont.inc ****  *
   8:Generated_Source\PSoC5/SimpleSystem_cortex_mx_ee_irq_cng_cont.inc ****  * ERIKA Enterprise is free software; you can redistribute it
   9:Generated_Source\PSoC5/SimpleSystem_cortex_mx_ee_irq_cng_cont.inc ****  * and/or modify it under the terms of the GNU General Public License
  10:Generated_Source\PSoC5/SimpleSystem_cortex_mx_ee_irq_cng_cont.inc ****  * version 2 as published by the Free Software Foundation, 
  11:Generated_Source\PSoC5/SimpleSystem_cortex_mx_ee_irq_cng_cont.inc ****  * (with a special exception described below).
  12:Generated_Source\PSoC5/SimpleSystem_cortex_mx_ee_irq_cng_cont.inc ****  *
  13:Generated_Source\PSoC5/SimpleSystem_cortex_mx_ee_irq_cng_cont.inc ****  * Linking this code statically or dynamically with other modules is
  14:Generated_Source\PSoC5/SimpleSystem_cortex_mx_ee_irq_cng_cont.inc ****  * making a combined work based on this code.  Thus, the terms and
  15:Generated_Source\PSoC5/SimpleSystem_cortex_mx_ee_irq_cng_cont.inc ****  * conditions of the GNU General Public License cover the whole
  16:Generated_Source\PSoC5/SimpleSystem_cortex_mx_ee_irq_cng_cont.inc ****  * combination.
  17:Generated_Source\PSoC5/SimpleSystem_cortex_mx_ee_irq_cng_cont.inc ****  *
  18:Generated_Source\PSoC5/SimpleSystem_cortex_mx_ee_irq_cng_cont.inc ****  * As a special exception, the copyright holders of this library give you
  19:Generated_Source\PSoC5/SimpleSystem_cortex_mx_ee_irq_cng_cont.inc ****  * permission to link this code with independent modules to produce an
  20:Generated_Source\PSoC5/SimpleSystem_cortex_mx_ee_irq_cng_cont.inc ****  * executable, regardless of the license terms of these independent
  21:Generated_Source\PSoC5/SimpleSystem_cortex_mx_ee_irq_cng_cont.inc ****  * modules, and to copy and distribute the resulting executable under
  22:Generated_Source\PSoC5/SimpleSystem_cortex_mx_ee_irq_cng_cont.inc ****  * terms of your choice, provided that you also meet, for each linked
  23:Generated_Source\PSoC5/SimpleSystem_cortex_mx_ee_irq_cng_cont.inc ****  * independent module, the terms and conditions of the license of that
  24:Generated_Source\PSoC5/SimpleSystem_cortex_mx_ee_irq_cng_cont.inc ****  * module.  An independent module is a module which is not derived from
  25:Generated_Source\PSoC5/SimpleSystem_cortex_mx_ee_irq_cng_cont.inc ****  * or based on this library.  If you modify this code, you may extend
  26:Generated_Source\PSoC5/SimpleSystem_cortex_mx_ee_irq_cng_cont.inc ****  * this exception to your version of the code, but you are not
  27:Generated_Source\PSoC5/SimpleSystem_cortex_mx_ee_irq_cng_cont.inc ****  * obligated to do so.  If you do not wish to do so, delete this
  28:Generated_Source\PSoC5/SimpleSystem_cortex_mx_ee_irq_cng_cont.inc ****  * exception statement from your version.
  29:Generated_Source\PSoC5/SimpleSystem_cortex_mx_ee_irq_cng_cont.inc ****  *
  30:Generated_Source\PSoC5/SimpleSystem_cortex_mx_ee_irq_cng_cont.inc ****  * ERIKA Enterprise is distributed in the hope that it will be
  31:Generated_Source\PSoC5/SimpleSystem_cortex_mx_ee_irq_cng_cont.inc ****  * useful, but WITHOUT ANY WARRANTY; without even the implied warranty
  32:Generated_Source\PSoC5/SimpleSystem_cortex_mx_ee_irq_cng_cont.inc ****  * of MERCHANTABILITY or FITNESS FOR A PARTICULAR PURPOSE.  See the
  33:Generated_Source\PSoC5/SimpleSystem_cortex_mx_ee_irq_cng_cont.inc ****  * GNU General Public License version 2 for more details.
  34:Generated_Source\PSoC5/SimpleSystem_cortex_mx_ee_irq_cng_cont.inc ****  *
  35:Generated_Source\PSoC5/SimpleSystem_cortex_mx_ee_irq_cng_cont.inc ****  * You should have received a copy of the GNU General Public License
  36:Generated_Source\PSoC5/SimpleSystem_cortex_mx_ee_irq_cng_cont.inc ****  * version 2 along with ERIKA Enterprise; if not, write to the
  37:Generated_Source\PSoC5/SimpleSystem_cortex_mx_ee_irq_cng_cont.inc ****  * Free Software Foundation, Inc., 51 Franklin Street, Fifth Floor,
  38:Generated_Source\PSoC5/SimpleSystem_cortex_mx_ee_irq_cng_cont.inc ****  * Boston, MA 02110-1301 USA.
  39:Generated_Source\PSoC5/SimpleSystem_cortex_mx_ee_irq_cng_cont.inc ****  * ###*E*### */
  40:Generated_Source\PSoC5/SimpleSystem_cortex_mx_ee_irq_cng_cont.inc **** 
  41:Generated_Source\PSoC5/SimpleSystem_cortex_mx_ee_irq_cng_cont.inc ****  /** 
  42:Generated_Source\PSoC5/SimpleSystem_cortex_mx_ee_irq_cng_cont.inc **** 	
  43:Generated_Source\PSoC5/SimpleSystem_cortex_mx_ee_irq_cng_cont.inc **** 	@file	ee_irq_cng_cont.h
  44:Generated_Source\PSoC5/SimpleSystem_cortex_mx_ee_irq_cng_cont.inc **** 	@brief	Function active the context change interrupt
  45:Generated_Source\PSoC5/SimpleSystem_cortex_mx_ee_irq_cng_cont.inc **** 	@author	Gianluca Franchino
  46:Generated_Source\PSoC5/SimpleSystem_cortex_mx_ee_irq_cng_cont.inc **** 	@author	Giuseppe Serano
  47:Generated_Source\PSoC5/SimpleSystem_cortex_mx_ee_irq_cng_cont.inc **** 	@date	2012
  48:Generated_Source\PSoC5/SimpleSystem_cortex_mx_ee_irq_cng_cont.inc **** */ 
ARM GAS  C:\Users\Reza\AppData\Local\Temp\cc7uXqLk.s 			page 15


  49:Generated_Source\PSoC5/SimpleSystem_cortex_mx_ee_irq_cng_cont.inc ****     
  50:Generated_Source\PSoC5/SimpleSystem_cortex_mx_ee_irq_cng_cont.inc **** /*
  51:Generated_Source\PSoC5/SimpleSystem_cortex_mx_ee_irq_cng_cont.inc ****  * PSoC Port and API Generation
  52:Generated_Source\PSoC5/SimpleSystem_cortex_mx_ee_irq_cng_cont.inc ****  * Carlos Fernando Meier Martinez
  53:Generated_Source\PSoC5/SimpleSystem_cortex_mx_ee_irq_cng_cont.inc ****  * Hochschule Darmstadt, Germany. 2017.
  54:Generated_Source\PSoC5/SimpleSystem_cortex_mx_ee_irq_cng_cont.inc ****  */
  55:Generated_Source\PSoC5/SimpleSystem_cortex_mx_ee_irq_cng_cont.inc **** 
  56:Generated_Source\PSoC5/SimpleSystem_cortex_mx_ee_irq_cng_cont.inc **** #ifndef __INCLUDE_CORTEX_MX_IRQ_CNG_CONTEXT_H__
  57:Generated_Source\PSoC5/SimpleSystem_cortex_mx_ee_irq_cng_cont.inc **** #define __INCLUDE_CORTEX_MX_IRQ_CNG_CONTEXT_H__
  58:Generated_Source\PSoC5/SimpleSystem_cortex_mx_ee_irq_cng_cont.inc **** 
  59:Generated_Source\PSoC5/SimpleSystem_cortex_mx_ee_irq_cng_cont.inc **** #ifdef __GNU__
  60:Generated_Source\PSoC5/SimpleSystem_cortex_mx_ee_irq_cng_cont.inc **** #include "SimpleSystem_common_ee_compiler_gcc.inc"
  61:Generated_Source\PSoC5/SimpleSystem_cortex_mx_ee_irq_cng_cont.inc **** #endif
  62:Generated_Source\PSoC5/SimpleSystem_cortex_mx_ee_irq_cng_cont.inc **** 
  63:Generated_Source\PSoC5/SimpleSystem_cortex_mx_ee_irq_cng_cont.inc **** /* Implemented in ee_<compiler>_change_context_isr.s */
  64:Generated_Source\PSoC5/SimpleSystem_cortex_mx_ee_irq_cng_cont.inc **** extern void EE_switch_context(void);
  65:Generated_Source\PSoC5/SimpleSystem_cortex_mx_ee_irq_cng_cont.inc **** 
  66:Generated_Source\PSoC5/SimpleSystem_cortex_mx_ee_irq_cng_cont.inc **** __INLINE__ void  EE_cortex_mx_IRQ_active_change_context(void)
  67:Generated_Source\PSoC5/SimpleSystem_cortex_mx_ee_irq_cng_cont.inc **** {
  68:Generated_Source\PSoC5/SimpleSystem_cortex_mx_ee_irq_cng_cont.inc **** 	EE_switch_context();
 229              		.loc 4 68 0 is_stmt 1 discriminator 4
 230 007c FFF7FEFF 		bl	EE_switch_context
 231              	.LVL18:
 232              	.L7:
 233              	.LBE125:
 234              	.LBE124:
 235              	.LBB126:
 236              	.LBB127:
 191:Generated_Source\PSoC5/SimpleSystem_cortex_mx_ee_cpu.inc **** #endif	/* !__KEIL__ */
 237              		.loc 2 191 0 discriminator 6
 238              		.syntax unified
 239              	@ 191 "Generated_Source\PSoC5/SimpleSystem_cortex_mx_ee_cpu.inc" 1
 240 0080 62B6     		cpsie i
 241              	@ 0 "" 2
 242              		.thumb
 243              		.syntax unified
 244              	.LBE127:
 245              	.LBE126:
  25:source\asw/main.c **** {
 246              		.loc 1 25 0 discriminator 6
 247 0082 BDE81940 		pop	{r0, r3, r4, lr}
 248              		.cfi_restore 14
 249              		.cfi_restore 4
 250              		.cfi_restore 3
 251              		.cfi_restore 0
 252              		.cfi_def_cfa_offset 0
 253 0086 8546     		mov	sp, r0
 254 0088 7047     		bx	lr
 255              	.L10:
 256 008a 00BF     		.align	2
 257              	.L9:
 258 008c 04ED00E0 		.word	-536810236
 259 0090 20ED00E0 		.word	-536810208
 260 0094 00000000 		.word	EE_IRQ_nesting_level
 261              		.cfi_endproc
 262              	.LFE114:
 263              		.size	systick_handler, .-systick_handler
ARM GAS  C:\Users\Reza\AppData\Local\Temp\cc7uXqLk.s 			page 16


 264              		.section	.text.soundTest1,"ax",%progbits
 265              		.align	2
 266              		.global	soundTest1
 267              		.thumb
 268              		.thumb_func
 269              		.type	soundTest1, %function
 270              	soundTest1:
 271              	.LFB116:
  28:source\asw/main.c **** }
  29:source\asw/main.c **** 
  30:source\asw/main.c **** void soundTest1()
  31:source\asw/main.c **** {
 272              		.loc 1 31 0
 273              		.cfi_startproc
 274              		@ args = 0, pretend = 0, frame = 0
 275              		@ frame_needed = 0, uses_anonymous_args = 0
 276 0000 70B5     		push	{r4, r5, r6, lr}
 277              		.cfi_def_cfa_offset 16
 278              		.cfi_offset 4, -16
 279              		.cfi_offset 5, -12
 280              		.cfi_offset 6, -8
 281              		.cfi_offset 14, -4
  32:source\asw/main.c ****     
  33:source\asw/main.c ****     
  34:source\asw/main.c ****     
  35:source\asw/main.c ****     
  36:source\asw/main.c ****     SOUND_Init();
 282              		.loc 1 36 0
 283 0002 FFF7FEFF 		bl	SOUND_Init
 284              	.LVL19:
 285              	.L16:
 286              	.LBB128:
  37:source\asw/main.c **** 
  38:source\asw/main.c ****     while(1)
  39:source\asw/main.c ****     {
  40:source\asw/main.c ****         for (uint8_t i = 0; i < 3; i++)
 287              		.loc 1 40 0
 288 0006 0026     		movs	r6, #0
 289 0008 13E0     		b	.L12
 290              	.LVL20:
 291              	.L15:
  41:source\asw/main.c ****         {
  42:source\asw/main.c ****             SOUND_SetSong(SOUND_Records[i].m_data, SOUND_Records[i].m_size);
 292              		.loc 1 42 0
 293 000a 0B4B     		ldr	r3, .L18
 294 000c 03EB0613 		add	r3, r3, r6, lsl #4
 295 0010 9D68     		ldr	r5, [r3, #8]
 296 0012 2946     		mov	r1, r5
 297 0014 D868     		ldr	r0, [r3, #12]
 298 0016 FFF7FEFF 		bl	SOUND_SetSong
 299              	.LVL21:
 300              	.LBB129:
  43:source\asw/main.c ****             
  44:source\asw/main.c ****             for (uint32_t s = 0; s < SOUND_Records[i].m_size; s++)
 301              		.loc 1 44 0
 302 001a 0024     		movs	r4, #0
 303 001c 05E0     		b	.L13
ARM GAS  C:\Users\Reza\AppData\Local\Temp\cc7uXqLk.s 			page 17


 304              	.LVL22:
 305              	.L14:
  45:source\asw/main.c ****             {
  46:source\asw/main.c ****                 SOUND_isr();
 306              		.loc 1 46 0 discriminator 3
 307 001e FFF7FEFF 		bl	SOUND_isr
 308              	.LVL23:
  47:source\asw/main.c ****                 CyDelayUs(45);   //22kHz == 45us
 309              		.loc 1 47 0 discriminator 3
 310 0022 2D20     		movs	r0, #45
 311 0024 FFF7FEFF 		bl	CyDelayUs
 312              	.LVL24:
  44:source\asw/main.c ****             {
 313              		.loc 1 44 0 discriminator 3
 314 0028 0134     		adds	r4, r4, #1
 315              	.LVL25:
 316              	.L13:
  44:source\asw/main.c ****             {
 317              		.loc 1 44 0 is_stmt 0 discriminator 1
 318 002a AC42     		cmp	r4, r5
 319 002c F7D3     		bcc	.L14
 320              	.LBE129:
  40:source\asw/main.c ****         {
 321              		.loc 1 40 0 is_stmt 1 discriminator 2
 322 002e 0136     		adds	r6, r6, #1
 323              	.LVL26:
 324 0030 F6B2     		uxtb	r6, r6
 325              	.LVL27:
 326              	.L12:
  40:source\asw/main.c ****         {
 327              		.loc 1 40 0 is_stmt 0 discriminator 1
 328 0032 022E     		cmp	r6, #2
 329 0034 E9D9     		bls	.L15
 330 0036 E6E7     		b	.L16
 331              	.L19:
 332              		.align	2
 333              	.L18:
 334 0038 00000000 		.word	SOUND_Records
 335              	.LBE128:
 336              		.cfi_endproc
 337              	.LFE116:
 338              		.size	soundTest1, .-soundTest1
 339              		.section	.text.soundTest2,"ax",%progbits
 340              		.align	2
 341              		.global	soundTest2
 342              		.thumb
 343              		.thumb_func
 344              		.type	soundTest2, %function
 345              	soundTest2:
 346              	.LFB117:
  48:source\asw/main.c ****             }
  49:source\asw/main.c ****         }
  50:source\asw/main.c ****         
  51:source\asw/main.c ****     }
  52:source\asw/main.c ****     while(1){;}
  53:source\asw/main.c **** }    
  54:source\asw/main.c **** 
ARM GAS  C:\Users\Reza\AppData\Local\Temp\cc7uXqLk.s 			page 18


  55:source\asw/main.c **** void soundTest2()
  56:source\asw/main.c **** {
 347              		.loc 1 56 0 is_stmt 1
 348              		.cfi_startproc
 349              		@ args = 0, pretend = 0, frame = 0
 350              		@ frame_needed = 0, uses_anonymous_args = 0
 351 0000 F8B5     		push	{r3, r4, r5, r6, r7, lr}
 352              		.cfi_def_cfa_offset 24
 353              		.cfi_offset 3, -24
 354              		.cfi_offset 4, -20
 355              		.cfi_offset 5, -16
 356              		.cfi_offset 6, -12
 357              		.cfi_offset 7, -8
 358              		.cfi_offset 14, -4
  57:source\asw/main.c ****     SOUND_Init();
 359              		.loc 1 57 0
 360 0002 FFF7FEFF 		bl	SOUND_Init
 361              	.LVL28:
  58:source\asw/main.c ****     SOUND_StartPlay();
 362              		.loc 1 58 0
 363 0006 FFF7FEFF 		bl	SOUND_StartPlay
 364              	.LVL29:
 365              	.L25:
 366              	.LBB130:
  59:source\asw/main.c **** 
  60:source\asw/main.c ****     while(1)
  61:source\asw/main.c ****     {
  62:source\asw/main.c ****         for (uint8_t i = 0; i < 3; i++)
 367              		.loc 1 62 0
 368 000a 0027     		movs	r7, #0
 369 000c 15E0     		b	.L21
 370              	.LVL30:
 371              	.L24:
  63:source\asw/main.c ****         {
  64:source\asw/main.c ****             SOUND_SetSong(SOUND_Records[i].m_data, SOUND_Records[i].m_size);
 372              		.loc 1 64 0
 373 000e 0C4B     		ldr	r3, .L27
 374 0010 03EB0713 		add	r3, r3, r7, lsl #4
 375 0014 DE68     		ldr	r6, [r3, #12]
 376 0016 9D68     		ldr	r5, [r3, #8]
 377 0018 2946     		mov	r1, r5
 378 001a 3046     		mov	r0, r6
 379 001c FFF7FEFF 		bl	SOUND_SetSong
 380              	.LVL31:
 381              	.LBB131:
  65:source\asw/main.c ****             
  66:source\asw/main.c ****             for (uint32_t s = 0; s < SOUND_Records[i].m_size; s++)
 382              		.loc 1 66 0
 383 0020 0024     		movs	r4, #0
 384 0022 06E0     		b	.L22
 385              	.LVL32:
 386              	.L23:
  67:source\asw/main.c ****             {
  68:source\asw/main.c ****                 SOUND_PWM_WriteCompare(SOUND_Records[i].m_data[s]);
 387              		.loc 1 68 0 discriminator 3
 388 0024 305D     		ldrb	r0, [r6, r4]	@ zero_extendqisi2
 389 0026 FFF7FEFF 		bl	SOUND_PWM_WriteCompare
ARM GAS  C:\Users\Reza\AppData\Local\Temp\cc7uXqLk.s 			page 19


 390              	.LVL33:
  69:source\asw/main.c ****                 CyDelayUs(45);   //22kHz == 45us
 391              		.loc 1 69 0 discriminator 3
 392 002a 2D20     		movs	r0, #45
 393 002c FFF7FEFF 		bl	CyDelayUs
 394              	.LVL34:
  66:source\asw/main.c ****             {
 395              		.loc 1 66 0 discriminator 3
 396 0030 0134     		adds	r4, r4, #1
 397              	.LVL35:
 398              	.L22:
  66:source\asw/main.c ****             {
 399              		.loc 1 66 0 is_stmt 0 discriminator 1
 400 0032 AC42     		cmp	r4, r5
 401 0034 F6D3     		bcc	.L23
 402              	.LBE131:
  62:source\asw/main.c ****         {
 403              		.loc 1 62 0 is_stmt 1 discriminator 2
 404 0036 0137     		adds	r7, r7, #1
 405              	.LVL36:
 406 0038 FFB2     		uxtb	r7, r7
 407              	.LVL37:
 408              	.L21:
  62:source\asw/main.c ****         {
 409              		.loc 1 62 0 is_stmt 0 discriminator 1
 410 003a 022F     		cmp	r7, #2
 411 003c E7D9     		bls	.L24
 412 003e E4E7     		b	.L25
 413              	.L28:
 414              		.align	2
 415              	.L27:
 416 0040 00000000 		.word	SOUND_Records
 417              	.LBE130:
 418              		.cfi_endproc
 419              	.LFE117:
 420              		.size	soundTest2, .-soundTest2
 421              		.section	.text.main,"ax",%progbits
 422              		.align	2
 423              		.global	main
 424              		.thumb
 425              		.thumb_func
 426              		.type	main, %function
 427              	main:
 428              	.LFB118:
  70:source\asw/main.c ****             }
  71:source\asw/main.c ****         }
  72:source\asw/main.c ****         
  73:source\asw/main.c ****     }
  74:source\asw/main.c ****     while(1){;}
  75:source\asw/main.c **** }    
  76:source\asw/main.c **** 
  77:source\asw/main.c ****   
  78:source\asw/main.c **** 
  79:source\asw/main.c **** 
  80:source\asw/main.c **** int main()
  81:source\asw/main.c **** {
 429              		.loc 1 81 0 is_stmt 1
ARM GAS  C:\Users\Reza\AppData\Local\Temp\cc7uXqLk.s 			page 20


 430              		.cfi_startproc
 431              		@ Volatile: function does not return.
 432              		@ args = 0, pretend = 0, frame = 0
 433              		@ frame_needed = 0, uses_anonymous_args = 0
 434 0000 08B5     		push	{r3, lr}
 435              		.cfi_def_cfa_offset 8
 436              		.cfi_offset 3, -8
 437              		.cfi_offset 14, -4
  82:source\asw/main.c ****     CyGlobalIntEnable; /* Enable global interrupts. */
 438              		.loc 1 82 0
 439              		.syntax unified
 440              	@ 82 "source\asw\main.c" 1
 441 0002 62B6     		CPSIE   i
 442              	@ 0 "" 2
 443              	.LVL38:
 444              		.thumb
 445              		.syntax unified
 446              	.LBB132:
 447              	.LBB133:
 448              		.file 5 "Generated_Source\\PSoC5/SimpleSystem_cortex_mx_ee_systick.inc"
   1:Generated_Source\PSoC5/SimpleSystem_cortex_mx_ee_systick.inc **** /* ###*B*###
   2:Generated_Source\PSoC5/SimpleSystem_cortex_mx_ee_systick.inc ****  * ERIKA Enterprise - a tiny RTOS for small microcontrollers
   3:Generated_Source\PSoC5/SimpleSystem_cortex_mx_ee_systick.inc ****  *
   4:Generated_Source\PSoC5/SimpleSystem_cortex_mx_ee_systick.inc ****  * Copyright (C) 2002-2012  Evidence Srl
   5:Generated_Source\PSoC5/SimpleSystem_cortex_mx_ee_systick.inc ****  *
   6:Generated_Source\PSoC5/SimpleSystem_cortex_mx_ee_systick.inc ****  * This file is part of ERIKA Enterprise.
   7:Generated_Source\PSoC5/SimpleSystem_cortex_mx_ee_systick.inc ****  *
   8:Generated_Source\PSoC5/SimpleSystem_cortex_mx_ee_systick.inc ****  * ERIKA Enterprise is free software; you can redistribute it
   9:Generated_Source\PSoC5/SimpleSystem_cortex_mx_ee_systick.inc ****  * and/or modify it under the terms of the GNU General Public License
  10:Generated_Source\PSoC5/SimpleSystem_cortex_mx_ee_systick.inc ****  * version 2 as published by the Free Software Foundation,
  11:Generated_Source\PSoC5/SimpleSystem_cortex_mx_ee_systick.inc ****  * (with a special exception described below).
  12:Generated_Source\PSoC5/SimpleSystem_cortex_mx_ee_systick.inc ****  *
  13:Generated_Source\PSoC5/SimpleSystem_cortex_mx_ee_systick.inc ****  * Linking this code statically or dynamically with other modules is
  14:Generated_Source\PSoC5/SimpleSystem_cortex_mx_ee_systick.inc ****  * making a combined work based on this code.  Thus, the terms and
  15:Generated_Source\PSoC5/SimpleSystem_cortex_mx_ee_systick.inc ****  * conditions of the GNU General Public License cover the whole
  16:Generated_Source\PSoC5/SimpleSystem_cortex_mx_ee_systick.inc ****  * combination.
  17:Generated_Source\PSoC5/SimpleSystem_cortex_mx_ee_systick.inc ****  *
  18:Generated_Source\PSoC5/SimpleSystem_cortex_mx_ee_systick.inc ****  * As a special exception, the copyright holders of this library give you
  19:Generated_Source\PSoC5/SimpleSystem_cortex_mx_ee_systick.inc ****  * permission to link this code with independent modules to produce an
  20:Generated_Source\PSoC5/SimpleSystem_cortex_mx_ee_systick.inc ****  * executable, regardless of the license terms of these independent
  21:Generated_Source\PSoC5/SimpleSystem_cortex_mx_ee_systick.inc ****  * modules, and to copy and distribute the resulting executable under
  22:Generated_Source\PSoC5/SimpleSystem_cortex_mx_ee_systick.inc ****  * terms of your choice, provided that you also meet, for each linked
  23:Generated_Source\PSoC5/SimpleSystem_cortex_mx_ee_systick.inc ****  * independent module, the terms and conditions of the license of that
  24:Generated_Source\PSoC5/SimpleSystem_cortex_mx_ee_systick.inc ****  * module.  An independent module is a module which is not derived from
  25:Generated_Source\PSoC5/SimpleSystem_cortex_mx_ee_systick.inc ****  * or based on this library.  If you modify this code, you may extend
  26:Generated_Source\PSoC5/SimpleSystem_cortex_mx_ee_systick.inc ****  * this exception to your version of the code, but you are not
  27:Generated_Source\PSoC5/SimpleSystem_cortex_mx_ee_systick.inc ****  * obligated to do so.  If you do not wish to do so, delete this
  28:Generated_Source\PSoC5/SimpleSystem_cortex_mx_ee_systick.inc ****  * exception statement from your version.
  29:Generated_Source\PSoC5/SimpleSystem_cortex_mx_ee_systick.inc ****  *
  30:Generated_Source\PSoC5/SimpleSystem_cortex_mx_ee_systick.inc ****  * ERIKA Enterprise is distributed in the hope that it will be
  31:Generated_Source\PSoC5/SimpleSystem_cortex_mx_ee_systick.inc ****  * useful, but WITHOUT ANY WARRANTY; without even the implied warranty
  32:Generated_Source\PSoC5/SimpleSystem_cortex_mx_ee_systick.inc ****  * of MERCHANTABILITY or FITNESS FOR A PARTICULAR PURPOSE.  See the
  33:Generated_Source\PSoC5/SimpleSystem_cortex_mx_ee_systick.inc ****  * GNU General Public License version 2 for more details.
  34:Generated_Source\PSoC5/SimpleSystem_cortex_mx_ee_systick.inc ****  *
  35:Generated_Source\PSoC5/SimpleSystem_cortex_mx_ee_systick.inc ****  * You should have received a copy of the GNU General Public License
  36:Generated_Source\PSoC5/SimpleSystem_cortex_mx_ee_systick.inc ****  * version 2 along with ERIKA Enterprise; if not, write to the
  37:Generated_Source\PSoC5/SimpleSystem_cortex_mx_ee_systick.inc ****  * Free Software Foundation, Inc., 51 Franklin Street, Fifth Floor,
ARM GAS  C:\Users\Reza\AppData\Local\Temp\cc7uXqLk.s 			page 21


  38:Generated_Source\PSoC5/SimpleSystem_cortex_mx_ee_systick.inc ****  * Boston, MA 02110-1301 USA.
  39:Generated_Source\PSoC5/SimpleSystem_cortex_mx_ee_systick.inc ****  * ###*E*### */
  40:Generated_Source\PSoC5/SimpleSystem_cortex_mx_ee_systick.inc **** 
  41:Generated_Source\PSoC5/SimpleSystem_cortex_mx_ee_systick.inc **** /**
  42:Generated_Source\PSoC5/SimpleSystem_cortex_mx_ee_systick.inc ****     @file	ee_systick.h
  43:Generated_Source\PSoC5/SimpleSystem_cortex_mx_ee_systick.inc ****     @brief	SysTick system timer driver header file.
  44:Generated_Source\PSoC5/SimpleSystem_cortex_mx_ee_systick.inc ****     @author	Giuseppe Serano
  45:Generated_Source\PSoC5/SimpleSystem_cortex_mx_ee_systick.inc ****     @date	2012
  46:Generated_Source\PSoC5/SimpleSystem_cortex_mx_ee_systick.inc **** 
  47:Generated_Source\PSoC5/SimpleSystem_cortex_mx_ee_systick.inc **** **/
  48:Generated_Source\PSoC5/SimpleSystem_cortex_mx_ee_systick.inc **** 
  49:Generated_Source\PSoC5/SimpleSystem_cortex_mx_ee_systick.inc **** /*
  50:Generated_Source\PSoC5/SimpleSystem_cortex_mx_ee_systick.inc ****  * PSoC Port and API Generation
  51:Generated_Source\PSoC5/SimpleSystem_cortex_mx_ee_systick.inc ****  * Carlos Fernando Meier Martinez
  52:Generated_Source\PSoC5/SimpleSystem_cortex_mx_ee_systick.inc ****  * Hochschule Darmstadt, Germany. 2017.
  53:Generated_Source\PSoC5/SimpleSystem_cortex_mx_ee_systick.inc ****  */
  54:Generated_Source\PSoC5/SimpleSystem_cortex_mx_ee_systick.inc **** 
  55:Generated_Source\PSoC5/SimpleSystem_cortex_mx_ee_systick.inc **** #ifndef	__INCLUDE_CORTEX_MX_SYSTICK_H__
  56:Generated_Source\PSoC5/SimpleSystem_cortex_mx_ee_systick.inc **** #define	__INCLUDE_CORTEX_MX_SYSTICK_H__
  57:Generated_Source\PSoC5/SimpleSystem_cortex_mx_ee_systick.inc **** 
  58:Generated_Source\PSoC5/SimpleSystem_cortex_mx_ee_systick.inc **** #ifdef	__USE_SYSTICK__
  59:Generated_Source\PSoC5/SimpleSystem_cortex_mx_ee_systick.inc **** 
  60:Generated_Source\PSoC5/SimpleSystem_cortex_mx_ee_systick.inc **** /** error value. No errors happened **/
  61:Generated_Source\PSoC5/SimpleSystem_cortex_mx_ee_systick.inc **** #define	EE_SYSTICK_NO_ERRORS	0
  62:Generated_Source\PSoC5/SimpleSystem_cortex_mx_ee_systick.inc **** /** error value. Wrong funtion arguments values **/
  63:Generated_Source\PSoC5/SimpleSystem_cortex_mx_ee_systick.inc **** #define	EE_SYSTICK_ERR_BAD_ARGS	1
  64:Generated_Source\PSoC5/SimpleSystem_cortex_mx_ee_systick.inc **** 
  65:Generated_Source\PSoC5/SimpleSystem_cortex_mx_ee_systick.inc **** /**
  66:Generated_Source\PSoC5/SimpleSystem_cortex_mx_ee_systick.inc ****     @brief Start SysTick.
  67:Generated_Source\PSoC5/SimpleSystem_cortex_mx_ee_systick.inc **** 
  68:Generated_Source\PSoC5/SimpleSystem_cortex_mx_ee_systick.inc ****     This will start the SysTick counter.  If an ISR has been defined, it is
  69:Generated_Source\PSoC5/SimpleSystem_cortex_mx_ee_systick.inc ****     called when the SysTick counter rolls over.
  70:Generated_Source\PSoC5/SimpleSystem_cortex_mx_ee_systick.inc **** 
  71:Generated_Source\PSoC5/SimpleSystem_cortex_mx_ee_systick.inc ****     @note Calling this function will cause the SysTick counter to (re)commence
  72:Generated_Source\PSoC5/SimpleSystem_cortex_mx_ee_systick.inc ****     counting from its current value.  The counter is not automatically reloaded
  73:Generated_Source\PSoC5/SimpleSystem_cortex_mx_ee_systick.inc ****     with the period as specified in a previous call to EE_systick_set_period().
  74:Generated_Source\PSoC5/SimpleSystem_cortex_mx_ee_systick.inc ****     If an immediate reload is required, the \b NVIC_ST_CURRENT register must be
  75:Generated_Source\PSoC5/SimpleSystem_cortex_mx_ee_systick.inc ****     written to force this.  Any write to this register clears the SysTick
  76:Generated_Source\PSoC5/SimpleSystem_cortex_mx_ee_systick.inc ****     counter to 0 and will cause a reload with the supplied period on the next
  77:Generated_Source\PSoC5/SimpleSystem_cortex_mx_ee_systick.inc ****     clock.
  78:Generated_Source\PSoC5/SimpleSystem_cortex_mx_ee_systick.inc ****  */
  79:Generated_Source\PSoC5/SimpleSystem_cortex_mx_ee_systick.inc **** __INLINE__ void  EE_systick_start(void)
  80:Generated_Source\PSoC5/SimpleSystem_cortex_mx_ee_systick.inc **** {
  81:Generated_Source\PSoC5/SimpleSystem_cortex_mx_ee_systick.inc ****   NVIC_ST_CTRL_R |= NVIC_ST_CTRL_CLK_SRC | NVIC_ST_CTRL_ENABLE;
  82:Generated_Source\PSoC5/SimpleSystem_cortex_mx_ee_systick.inc **** }
  83:Generated_Source\PSoC5/SimpleSystem_cortex_mx_ee_systick.inc **** 
  84:Generated_Source\PSoC5/SimpleSystem_cortex_mx_ee_systick.inc **** /**
  85:Generated_Source\PSoC5/SimpleSystem_cortex_mx_ee_systick.inc ****     @brief Stop SysTick.
  86:Generated_Source\PSoC5/SimpleSystem_cortex_mx_ee_systick.inc **** 
  87:Generated_Source\PSoC5/SimpleSystem_cortex_mx_ee_systick.inc ****     This will stop the SysTick counter.  If an ISR has been defined, it will
  88:Generated_Source\PSoC5/SimpleSystem_cortex_mx_ee_systick.inc ****     no longer be called until SysTick is restarted.
  89:Generated_Source\PSoC5/SimpleSystem_cortex_mx_ee_systick.inc **** */
  90:Generated_Source\PSoC5/SimpleSystem_cortex_mx_ee_systick.inc **** __INLINE__ void  EE_systick_stop(void)
  91:Generated_Source\PSoC5/SimpleSystem_cortex_mx_ee_systick.inc **** {
  92:Generated_Source\PSoC5/SimpleSystem_cortex_mx_ee_systick.inc ****   NVIC_ST_CTRL_R &= ~(NVIC_ST_CTRL_ENABLE);
  93:Generated_Source\PSoC5/SimpleSystem_cortex_mx_ee_systick.inc **** }
  94:Generated_Source\PSoC5/SimpleSystem_cortex_mx_ee_systick.inc **** 
ARM GAS  C:\Users\Reza\AppData\Local\Temp\cc7uXqLk.s 			page 22


  95:Generated_Source\PSoC5/SimpleSystem_cortex_mx_ee_systick.inc **** /**
  96:Generated_Source\PSoC5/SimpleSystem_cortex_mx_ee_systick.inc ****     @brief Enables the SysTick interrupt.
  97:Generated_Source\PSoC5/SimpleSystem_cortex_mx_ee_systick.inc **** 
  98:Generated_Source\PSoC5/SimpleSystem_cortex_mx_ee_systick.inc ****     This function will enable the SysTick interrupt, allowing it to be
  99:Generated_Source\PSoC5/SimpleSystem_cortex_mx_ee_systick.inc ****     reflected to the processor.
 100:Generated_Source\PSoC5/SimpleSystem_cortex_mx_ee_systick.inc **** 
 101:Generated_Source\PSoC5/SimpleSystem_cortex_mx_ee_systick.inc ****     @note The SysTick ISR does not need to clear the SysTick interrupt source as
 102:Generated_Source\PSoC5/SimpleSystem_cortex_mx_ee_systick.inc ****     this is done automatically by NVIC when the interrupt ISR is called.
 103:Generated_Source\PSoC5/SimpleSystem_cortex_mx_ee_systick.inc ****  */
 104:Generated_Source\PSoC5/SimpleSystem_cortex_mx_ee_systick.inc **** __INLINE__ void  EE_systick_enable_int()
 105:Generated_Source\PSoC5/SimpleSystem_cortex_mx_ee_systick.inc **** {
 106:Generated_Source\PSoC5/SimpleSystem_cortex_mx_ee_systick.inc ****   NVIC_ST_CTRL_R |= NVIC_ST_CTRL_INTEN;
 107:Generated_Source\PSoC5/SimpleSystem_cortex_mx_ee_systick.inc **** }
 108:Generated_Source\PSoC5/SimpleSystem_cortex_mx_ee_systick.inc **** 
 109:Generated_Source\PSoC5/SimpleSystem_cortex_mx_ee_systick.inc **** /**
 110:Generated_Source\PSoC5/SimpleSystem_cortex_mx_ee_systick.inc ****     @brief Disables the SysTick interrupt.
 111:Generated_Source\PSoC5/SimpleSystem_cortex_mx_ee_systick.inc **** 
 112:Generated_Source\PSoC5/SimpleSystem_cortex_mx_ee_systick.inc ****     This function will disable the SysTick interrupt, preventing it from being
 113:Generated_Source\PSoC5/SimpleSystem_cortex_mx_ee_systick.inc ****     reflected to the processor.
 114:Generated_Source\PSoC5/SimpleSystem_cortex_mx_ee_systick.inc ****  */
 115:Generated_Source\PSoC5/SimpleSystem_cortex_mx_ee_systick.inc **** __INLINE__ void  EE_systick_disable_int()
 116:Generated_Source\PSoC5/SimpleSystem_cortex_mx_ee_systick.inc **** {
 117:Generated_Source\PSoC5/SimpleSystem_cortex_mx_ee_systick.inc ****   NVIC_ST_CTRL_R &= ~(NVIC_ST_CTRL_INTEN);
 118:Generated_Source\PSoC5/SimpleSystem_cortex_mx_ee_systick.inc **** }
 119:Generated_Source\PSoC5/SimpleSystem_cortex_mx_ee_systick.inc **** 
 120:Generated_Source\PSoC5/SimpleSystem_cortex_mx_ee_systick.inc **** /**
 121:Generated_Source\PSoC5/SimpleSystem_cortex_mx_ee_systick.inc ****     @brief Sets the period of the SysTick counter.
 122:Generated_Source\PSoC5/SimpleSystem_cortex_mx_ee_systick.inc **** 
 123:Generated_Source\PSoC5/SimpleSystem_cortex_mx_ee_systick.inc ****     @param period is the number of clock ticks in each period of the SysTick
 124:Generated_Source\PSoC5/SimpleSystem_cortex_mx_ee_systick.inc ****     counter; must be between 1 and 16,777,216, inclusive. If the \e period is
 125:Generated_Source\PSoC5/SimpleSystem_cortex_mx_ee_systick.inc ****     out of range the function returns \b EE_SYSTICK_ERR_BAD_ARGS, else it will
 126:Generated_Source\PSoC5/SimpleSystem_cortex_mx_ee_systick.inc ****     returns \b EE_SYSTICK_NO_ERRORS.
 127:Generated_Source\PSoC5/SimpleSystem_cortex_mx_ee_systick.inc **** 
 128:Generated_Source\PSoC5/SimpleSystem_cortex_mx_ee_systick.inc ****     This function sets the rate at which the SysTick counter wraps; this
 129:Generated_Source\PSoC5/SimpleSystem_cortex_mx_ee_systick.inc ****     equates to the number of processor clocks between interrupts.
 130:Generated_Source\PSoC5/SimpleSystem_cortex_mx_ee_systick.inc **** 
 131:Generated_Source\PSoC5/SimpleSystem_cortex_mx_ee_systick.inc ****     @note Calling this function does not cause the SysTick counter to reload
 132:Generated_Source\PSoC5/SimpleSystem_cortex_mx_ee_systick.inc ****     immediately.  If an immediate reload is required, the \b NVIC_ST_CURRENT
 133:Generated_Source\PSoC5/SimpleSystem_cortex_mx_ee_systick.inc ****     register must be written.  Any write to this register clears the SysTick
 134:Generated_Source\PSoC5/SimpleSystem_cortex_mx_ee_systick.inc ****     counter to 0 and will cause a reload with the \e period supplied here on
 135:Generated_Source\PSoC5/SimpleSystem_cortex_mx_ee_systick.inc ****     the next clock after the SysTick is enabled.
 136:Generated_Source\PSoC5/SimpleSystem_cortex_mx_ee_systick.inc ****  */
 137:Generated_Source\PSoC5/SimpleSystem_cortex_mx_ee_systick.inc **** __INLINE__ EE_UREG  EE_systick_set_period(EE_UREG period)
 138:Generated_Source\PSoC5/SimpleSystem_cortex_mx_ee_systick.inc **** {
 139:Generated_Source\PSoC5/SimpleSystem_cortex_mx_ee_systick.inc ****   if ((period == NVIC_ST_RELOAD_S) || (period > NVIC_ST_RELOAD_M))
 140:Generated_Source\PSoC5/SimpleSystem_cortex_mx_ee_systick.inc ****     return EE_SYSTICK_ERR_BAD_ARGS;
 141:Generated_Source\PSoC5/SimpleSystem_cortex_mx_ee_systick.inc **** 
 142:Generated_Source\PSoC5/SimpleSystem_cortex_mx_ee_systick.inc ****   NVIC_ST_RELOAD_R = period - 1;
 449              		.loc 5 142 0
 450 0004 45F6BF52 		movw	r2, #23999
 451 0008 074B     		ldr	r3, .L32
 452 000a 1A60     		str	r2, [r3]
 453              	.LVL39:
 454              	.LBE133:
 455              	.LBE132:
 456              	.LBB134:
 457              	.LBB135:
ARM GAS  C:\Users\Reza\AppData\Local\Temp\cc7uXqLk.s 			page 23


 106:Generated_Source\PSoC5/SimpleSystem_cortex_mx_ee_systick.inc **** }
 458              		.loc 5 106 0
 459 000c 043B     		subs	r3, r3, #4
 460 000e 1A68     		ldr	r2, [r3]
 461 0010 42F00202 		orr	r2, r2, #2
 462 0014 1A60     		str	r2, [r3]
 463              	.LBE135:
 464              	.LBE134:
 465              	.LBB136:
 466              	.LBB137:
  81:Generated_Source\PSoC5/SimpleSystem_cortex_mx_ee_systick.inc **** }
 467              		.loc 5 81 0
 468 0016 1A68     		ldr	r2, [r3]
 469 0018 42F00502 		orr	r2, r2, #5
 470 001c 1A60     		str	r2, [r3]
 471              	.LBE137:
 472              	.LBE136:
  83:source\asw/main.c ****     
  84:source\asw/main.c ****     //Set systick period to 1 ms. Enable the INT and start it.
  85:source\asw/main.c **** 	EE_systick_set_period(MILLISECONDS_TO_TICKS(1, BCLK__BUS_CLK__HZ));
  86:source\asw/main.c **** 	EE_systick_enable_int();
  87:source\asw/main.c **** 	EE_systick_start();
  88:source\asw/main.c ****    
  89:source\asw/main.c ****     // Start Operating System
  90:source\asw/main.c ****     StartOS(OSDEFAULTAPPMODE);
 473              		.loc 1 90 0
 474 001e 0020     		movs	r0, #0
 475 0020 FFF7FEFF 		bl	EE_oo_StartOS
 476              	.LVL40:
 477              	.L30:
  91:source\asw/main.c ****     for(;;)
  92:source\asw/main.c ****     {
  93:source\asw/main.c ****         asm("nop");
 478              		.loc 1 93 0 discriminator 1
 479              		.syntax unified
 480              	@ 93 "source\asw\main.c" 1
 481 0024 00BF     		nop
 482              	@ 0 "" 2
 483              		.thumb
 484              		.syntax unified
 485 0026 FDE7     		b	.L30
 486              	.L33:
 487              		.align	2
 488              	.L32:
 489 0028 14E000E0 		.word	-536813548
 490              		.cfi_endproc
 491              	.LFE118:
 492              		.size	main, .-main
 493              		.section	.text.unhandledException,"ax",%progbits
 494              		.align	2
 495              		.global	unhandledException
 496              		.thumb
 497              		.thumb_func
 498              		.type	unhandledException, %function
 499              	unhandledException:
 500              	.LFB119:
  94:source\asw/main.c ****     }
ARM GAS  C:\Users\Reza\AppData\Local\Temp\cc7uXqLk.s 			page 24


  95:source\asw/main.c ****         
  96:source\asw/main.c **** }
  97:source\asw/main.c **** 
  98:source\asw/main.c **** void unhandledException()
  99:source\asw/main.c **** {
 501              		.loc 1 99 0
 502              		.cfi_startproc
 503              		@ args = 0, pretend = 0, frame = 0
 504              		@ frame_needed = 0, uses_anonymous_args = 0
 505              		@ link register save eliminated.
 100:source\asw/main.c ****     //Ooops, something terrible happened....check the call stack to see how we got here...
 101:source\asw/main.c ****     __asm("bkpt");
 506              		.loc 1 101 0
 507              		.syntax unified
 508              	@ 101 "source\asw\main.c" 1
 509 0000 00BE     		bkpt
 510              	@ 0 "" 2
 511              		.thumb
 512              		.syntax unified
 513 0002 7047     		bx	lr
 514              		.cfi_endproc
 515              	.LFE119:
 516              		.size	unhandledException, .-unhandledException
 517              		.section	.text.GetAndClearHighestEvent,"ax",%progbits
 518              		.align	2
 519              		.global	GetAndClearHighestEvent
 520              		.thumb
 521              		.thumb_func
 522              		.type	GetAndClearHighestEvent, %function
 523              	GetAndClearHighestEvent:
 524              	.LFB120:
 102:source\asw/main.c **** }
 103:source\asw/main.c **** 
 104:source\asw/main.c **** EventMaskType GetAndClearHighestEvent(EventMaskRefType ev)
 105:source\asw/main.c **** {
 525              		.loc 1 105 0
 526              		.cfi_startproc
 527              		@ args = 0, pretend = 0, frame = 0
 528              		@ frame_needed = 0, uses_anonymous_args = 0
 529              		@ link register save eliminated.
 530              	.LVL41:
 106:source\asw/main.c ****     EventMaskType result = 0;
 107:source\asw/main.c ****     EventMaskType lev = *ev;
 531              		.loc 1 107 0
 532 0000 0168     		ldr	r1, [r0]
 533              	.LVL42:
 534              	.LBB138:
 108:source\asw/main.c ****     
 109:source\asw/main.c ****     for (uint8_t i = 0; i < sizeof(EventMaskType) * 8; i++)
 535              		.loc 1 109 0
 536 0002 0023     		movs	r3, #0
 537 0004 09E0     		b	.L36
 538              	.LVL43:
 539              	.L39:
 110:source\asw/main.c ****     {
 111:source\asw/main.c ****         if (0 != (lev & (1<<i)))
 540              		.loc 1 111 0
ARM GAS  C:\Users\Reza\AppData\Local\Temp\cc7uXqLk.s 			page 25


 541 0006 0122     		movs	r2, #1
 542 0008 9A40     		lsls	r2, r2, r3
 543 000a 1142     		tst	r1, r2
 544 000c 03D0     		beq	.L37
 545              	.LVL44:
 112:source\asw/main.c ****         {
 113:source\asw/main.c ****             result = (1<<i);
 114:source\asw/main.c ****             *ev &= ~result;
 546              		.loc 1 114 0
 547 000e 21EA0201 		bic	r1, r1, r2
 548              	.LVL45:
 549 0012 0160     		str	r1, [r0]
 550              	.LVL46:
 115:source\asw/main.c ****             
 116:source\asw/main.c ****             return result;
 551              		.loc 1 116 0
 552 0014 04E0     		b	.L38
 553              	.LVL47:
 554              	.L37:
 109:source\asw/main.c ****     {
 555              		.loc 1 109 0 discriminator 2
 556 0016 0133     		adds	r3, r3, #1
 557              	.LVL48:
 558 0018 DBB2     		uxtb	r3, r3
 559              	.LVL49:
 560              	.L36:
 109:source\asw/main.c ****     {
 561              		.loc 1 109 0 is_stmt 0 discriminator 1
 562 001a 1F2B     		cmp	r3, #31
 563 001c F3D9     		bls	.L39
 564              	.LBE138:
 117:source\asw/main.c ****         }
 118:source\asw/main.c ****     }   
 119:source\asw/main.c ****     
 120:source\asw/main.c ****     return 0;
 565              		.loc 1 120 0 is_stmt 1
 566 001e 0022     		movs	r2, #0
 567              	.LVL50:
 568              	.L38:
 121:source\asw/main.c **** }
 569              		.loc 1 121 0
 570 0020 1046     		mov	r0, r2
 571              	.LVL51:
 572 0022 7047     		bx	lr
 573              		.cfi_endproc
 574              	.LFE120:
 575              		.size	GetAndClearHighestEvent, .-GetAndClearHighestEvent
 576              		.section	.text.Functsk_init,"ax",%progbits
 577              		.align	2
 578              		.global	Functsk_init
 579              		.thumb
 580              		.thumb_func
 581              		.type	Functsk_init, %function
 582              	Functsk_init:
 583              	.LFB121:
 122:source\asw/main.c **** 
 123:source\asw/main.c **** /********************************************************************************
ARM GAS  C:\Users\Reza\AppData\Local\Temp\cc7uXqLk.s 			page 26


 124:source\asw/main.c ****  * Task Definitions
 125:source\asw/main.c ****  ********************************************************************************/
 126:source\asw/main.c **** 
 127:source\asw/main.c **** TASK(tsk_init)
 128:source\asw/main.c **** {
 584              		.loc 1 128 0
 585              		.cfi_startproc
 586              		@ args = 0, pretend = 0, frame = 0
 587              		@ frame_needed = 0, uses_anonymous_args = 0
 588 0000 08B5     		push	{r3, lr}
 589              		.cfi_def_cfa_offset 8
 590              		.cfi_offset 3, -8
 591              		.cfi_offset 14, -4
 129:source\asw/main.c ****     
 130:source\asw/main.c ****     //Init MCAL Drivers
 131:source\asw/main.c ****     UART_LOG_Start();
 592              		.loc 1 131 0
 593 0002 FFF7FEFF 		bl	UART_LOG_Start
 594              	.LVL52:
 132:source\asw/main.c ****     SOUND_SAMPLE_Start();
 595              		.loc 1 132 0
 596 0006 FFF7FEFF 		bl	SOUND_SAMPLE_Start
 597              	.LVL53:
 133:source\asw/main.c ****     
 134:source\asw/main.c ****     LED_Init();
 598              		.loc 1 134 0
 599 000a FFF7FEFF 		bl	LED_Init
 600              	.LVL54:
 135:source\asw/main.c ****     SEVEN_Init();
 601              		.loc 1 135 0
 602 000e FFF7FEFF 		bl	SEVEN_Init
 603              	.LVL55:
 136:source\asw/main.c ****     SOUND_Init();
 604              		.loc 1 136 0
 605 0012 FFF7FEFF 		bl	SOUND_Init
 606              	.LVL56:
 137:source\asw/main.c ****     
 138:source\asw/main.c ****     
 139:source\asw/main.c ****     
 140:source\asw/main.c ****     //Test
 141:source\asw/main.c ****     //RC_t SOUND_StartPlay();
 142:source\asw/main.c ****     //SOUND_SetSong(SOUND_Records[0].m_data, SOUND_Records[0].m_size);
 143:source\asw/main.c **** 
 144:source\asw/main.c ****     
 145:source\asw/main.c ****     
 146:source\asw/main.c ****     //Reconfigure ISRs with OS parameters.
 147:source\asw/main.c ****     //This line MUST be called after the hardware driver initialisation!
 148:source\asw/main.c ****     EE_system_init();
 607              		.loc 1 148 0
 608 0016 FFF7FEFF 		bl	EE_system_init
 609              	.LVL57:
 149:source\asw/main.c ****     
 150:source\asw/main.c ****     UART_LOG_PutString("MP3 Player started...\n");
 610              		.loc 1 150 0
 611 001a 0A48     		ldr	r0, .L42
 612 001c FFF7FEFF 		bl	UART_LOG_PutString
 613              	.LVL58:
ARM GAS  C:\Users\Reza\AppData\Local\Temp\cc7uXqLk.s 			page 27


 151:source\asw/main.c **** 
 152:source\asw/main.c ****     //Application Init
 153:source\asw/main.c ****     MP3_Init();
 614              		.loc 1 153 0
 615 0020 FFF7FEFF 		bl	MP3_Init
 616              	.LVL59:
 154:source\asw/main.c ****     
 155:source\asw/main.c ****     //Start the alarm with 1000ms cycle time
 156:source\asw/main.c ****     SetRelAlarm(alrm_1s,1000,1000);
 617              		.loc 1 156 0
 618 0024 4FF47A72 		mov	r2, #1000
 619 0028 1146     		mov	r1, r2
 620 002a 0420     		movs	r0, #4
 621 002c FFF7FEFF 		bl	EE_oo_SetRelAlarm
 622              	.LVL60:
 157:source\asw/main.c ****     
 158:source\asw/main.c ****  
 159:source\asw/main.c ****     ActivateTask(tsk_control);
 623              		.loc 1 159 0
 624 0030 0220     		movs	r0, #2
 625 0032 FFF7FEFF 		bl	EE_oo_ActivateTask
 626              	.LVL61:
 160:source\asw/main.c ****     ActivateTask(tsk_background);
 627              		.loc 1 160 0
 628 0036 0120     		movs	r0, #1
 629 0038 FFF7FEFF 		bl	EE_oo_ActivateTask
 630              	.LVL62:
 161:source\asw/main.c ****     
 162:source\asw/main.c ****     TerminateTask();
 631              		.loc 1 162 0
 632 003c FFF7FEFF 		bl	EE_oo_TerminateTask
 633              	.LVL63:
 634 0040 08BD     		pop	{r3, pc}
 635              	.L43:
 636 0042 00BF     		.align	2
 637              	.L42:
 638 0044 00000000 		.word	.LC0
 639              		.cfi_endproc
 640              	.LFE121:
 641              		.size	Functsk_init, .-Functsk_init
 642              		.section	.text.Functsk_control,"ax",%progbits
 643              		.align	2
 644              		.global	Functsk_control
 645              		.thumb
 646              		.thumb_func
 647              		.type	Functsk_control, %function
 648              	Functsk_control:
 649              	.LFB122:
 163:source\asw/main.c ****     
 164:source\asw/main.c **** }
 165:source\asw/main.c **** 
 166:source\asw/main.c **** 
 167:source\asw/main.c **** TASK(tsk_control)
 168:source\asw/main.c **** {
 650              		.loc 1 168 0
 651              		.cfi_startproc
 652              		@ args = 0, pretend = 0, frame = 8
ARM GAS  C:\Users\Reza\AppData\Local\Temp\cc7uXqLk.s 			page 28


 653              		@ frame_needed = 0, uses_anonymous_args = 0
 654 0000 00B5     		push	{lr}
 655              		.cfi_def_cfa_offset 4
 656              		.cfi_offset 14, -4
 657 0002 83B0     		sub	sp, sp, #12
 658              		.cfi_def_cfa_offset 16
 169:source\asw/main.c ****  
 170:source\asw/main.c ****     static uint8_t count = 0;
 171:source\asw/main.c ****     
 172:source\asw/main.c ****     EventMaskType ev = 0;
 659              		.loc 1 172 0
 660 0004 0023     		movs	r3, #0
 661 0006 0193     		str	r3, [sp, #4]
 662              	.LVL64:
 663              	.L47:
 173:source\asw/main.c ****     EventMaskType nextEvent = 0;
 174:source\asw/main.c ****     
 175:source\asw/main.c ****     while(1)
 176:source\asw/main.c ****     {
 177:source\asw/main.c ****         //Wait, read and clear the event
 178:source\asw/main.c ****         WaitEvent(ev_1s | ev_1000ms | ev_3000ms | ev_500ms | ev_100ms | ev_Button1 | ev_Button2 | e
 664              		.loc 1 178 0
 665 0008 40F2FF10 		movw	r0, #511
 666 000c FFF7FEFF 		bl	EE_oo_WaitEvent
 667              	.LVL65:
 179:source\asw/main.c ****         GetEvent(tsk_control,&ev);
 668              		.loc 1 179 0
 669 0010 01A9     		add	r1, sp, #4
 670 0012 0220     		movs	r0, #2
 671 0014 FFF7FEFF 		bl	EE_oo_GetEvent
 672              	.LVL66:
 180:source\asw/main.c ****         ClearEvent(ev);
 673              		.loc 1 180 0
 674 0018 0198     		ldr	r0, [sp, #4]
 675 001a FFF7FEFF 		bl	EE_oo_ClearEvent
 676              	.LVL67:
 181:source\asw/main.c ****     
 182:source\asw/main.c ****         //Process all events from the mask
 183:source\asw/main.c ****         while(0 != ev)
 677              		.loc 1 183 0
 678 001e 04E0     		b	.L45
 679              	.L46:
 680              	.LBB139:
 184:source\asw/main.c ****         {
 185:source\asw/main.c ****             nextEvent = GetAndClearHighestEvent(&ev);
 681              		.loc 1 185 0
 682 0020 01A8     		add	r0, sp, #4
 683 0022 FFF7FEFF 		bl	GetAndClearHighestEvent
 684              	.LVL68:
 186:source\asw/main.c ****             RC_t result = MP3_ProcessEvent(nextEvent);
 685              		.loc 1 186 0
 686 0026 FFF7FEFF 		bl	MP3_ProcessEvent
 687              	.LVL69:
 688              	.L45:
 689              	.LBE139:
 183:source\asw/main.c ****         {
 690              		.loc 1 183 0
ARM GAS  C:\Users\Reza\AppData\Local\Temp\cc7uXqLk.s 			page 29


 691 002a 019B     		ldr	r3, [sp, #4]
 692 002c 002B     		cmp	r3, #0
 693 002e F7D1     		bne	.L46
 694 0030 EAE7     		b	.L47
 695              		.cfi_endproc
 696              	.LFE122:
 697              		.size	Functsk_control, .-Functsk_control
 698 0032 00BF     		.section	.text.Functsk_background,"ax",%progbits
 699              		.align	2
 700              		.global	Functsk_background
 701              		.thumb
 702              		.thumb_func
 703              		.type	Functsk_background, %function
 704              	Functsk_background:
 705              	.LFB123:
 187:source\asw/main.c ****         }
 188:source\asw/main.c ****     }
 189:source\asw/main.c **** }
 190:source\asw/main.c **** 
 191:source\asw/main.c **** TASK(tsk_background)
 192:source\asw/main.c **** {
 706              		.loc 1 192 0
 707              		.cfi_startproc
 708              		@ Volatile: function does not return.
 709              		@ args = 0, pretend = 0, frame = 0
 710              		@ frame_needed = 0, uses_anonymous_args = 0
 711              		@ link register save eliminated.
 712              	.L50:
 193:source\asw/main.c ****     while(1)
 194:source\asw/main.c ****     {
 195:source\asw/main.c ****         //do something with low prioroty
 196:source\asw/main.c ****         asm("nop");
 713              		.loc 1 196 0 discriminator 1
 714              		.syntax unified
 715              	@ 196 "source\asw\main.c" 1
 716 0000 00BF     		nop
 717              	@ 0 "" 2
 718              		.thumb
 719              		.syntax unified
 720 0002 FDE7     		b	.L50
 721              		.cfi_endproc
 722              	.LFE123:
 723              		.size	Functsk_background, .-Functsk_background
 724              		.section	.text.ISR2_isr_Button,"ax",%progbits
 725              		.align	2
 726              		.global	ISR2_isr_Button
 727              		.thumb
 728              		.thumb_func
 729              		.type	ISR2_isr_Button, %function
 730              	ISR2_isr_Button:
 731              	.LFB125:
 197:source\asw/main.c ****     }
 198:source\asw/main.c **** }
 199:source\asw/main.c **** 
 200:source\asw/main.c **** 
 201:source\asw/main.c **** /********************************************************************************
 202:source\asw/main.c ****  * ISR Definitions
ARM GAS  C:\Users\Reza\AppData\Local\Temp\cc7uXqLk.s 			page 30


 203:source\asw/main.c ****  ********************************************************************************/
 204:source\asw/main.c **** 
 205:source\asw/main.c **** ISR2(isr_Button)
 206:source\asw/main.c **** {
 732              		.loc 1 206 0
 733              		.cfi_startproc
 734              		@ args = 0, pretend = 0, frame = 0
 735              		@ frame_needed = 0, uses_anonymous_args = 0
 736 0000 08B5     		push	{r3, lr}
 737              		.cfi_def_cfa_offset 8
 738              		.cfi_offset 3, -8
 739              		.cfi_offset 14, -4
 207:source\asw/main.c ****     //Set the button bit
 208:source\asw/main.c ****     if (BUTTON_IsPressed(BUTTON_1)) SetEvent(tsk_control, ev_Button1);
 740              		.loc 1 208 0
 741 0002 0020     		movs	r0, #0
 742 0004 FFF7FEFF 		bl	BUTTON_IsPressed
 743              	.LVL70:
 744 0008 18B1     		cbz	r0, .L52
 745              		.loc 1 208 0 is_stmt 0 discriminator 1
 746 000a 0121     		movs	r1, #1
 747 000c 0220     		movs	r0, #2
 748 000e FFF7FEFF 		bl	EE_oo_SetEvent
 749              	.LVL71:
 750              	.L52:
 209:source\asw/main.c ****     if (BUTTON_IsPressed(BUTTON_2)) SetEvent(tsk_control, ev_Button2);
 751              		.loc 1 209 0 is_stmt 1
 752 0012 0120     		movs	r0, #1
 753 0014 FFF7FEFF 		bl	BUTTON_IsPressed
 754              	.LVL72:
 755 0018 18B1     		cbz	r0, .L53
 756              		.loc 1 209 0 is_stmt 0 discriminator 1
 757 001a 0221     		movs	r1, #2
 758 001c 0846     		mov	r0, r1
 759 001e FFF7FEFF 		bl	EE_oo_SetEvent
 760              	.LVL73:
 761              	.L53:
 210:source\asw/main.c ****     if (BUTTON_IsPressed(BUTTON_3)) SetEvent(tsk_control, ev_Button3);
 762              		.loc 1 210 0 is_stmt 1
 763 0022 0220     		movs	r0, #2
 764 0024 FFF7FEFF 		bl	BUTTON_IsPressed
 765              	.LVL74:
 766 0028 18B1     		cbz	r0, .L54
 767              		.loc 1 210 0 is_stmt 0 discriminator 1
 768 002a 0821     		movs	r1, #8
 769 002c 0220     		movs	r0, #2
 770 002e FFF7FEFF 		bl	EE_oo_SetEvent
 771              	.LVL75:
 772              	.L54:
 211:source\asw/main.c ****     if (BUTTON_IsPressed(BUTTON_4)) SetEvent(tsk_control, ev_Button4);
 773              		.loc 1 211 0 is_stmt 1
 774 0032 0320     		movs	r0, #3
 775 0034 FFF7FEFF 		bl	BUTTON_IsPressed
 776              	.LVL76:
 777 0038 18B1     		cbz	r0, .L55
 778              		.loc 1 211 0 is_stmt 0 discriminator 1
 779 003a 1021     		movs	r1, #16
ARM GAS  C:\Users\Reza\AppData\Local\Temp\cc7uXqLk.s 			page 31


 780 003c 0220     		movs	r0, #2
 781 003e FFF7FEFF 		bl	EE_oo_SetEvent
 782              	.LVL77:
 783              	.L55:
 212:source\asw/main.c ****     isr_Button_ClearPending();
 784              		.loc 1 212 0 is_stmt 1
 785 0042 FFF7FEFF 		bl	isr_Button_ClearPending
 786              	.LVL78:
 787 0046 08BD     		pop	{r3, pc}
 788              		.cfi_endproc
 789              	.LFE125:
 790              		.size	ISR2_isr_Button, .-ISR2_isr_Button
 791              		.section	.text.isr_Button,"ax",%progbits
 792              		.align	2
 793              		.global	isr_Button
 794              		.thumb
 795              		.thumb_func
 796              		.type	isr_Button, %function
 797              	isr_Button:
 798              	.LFB124:
 205:source\asw/main.c **** {
 799              		.loc 1 205 0
 800              		.cfi_startproc
 801              		@ Stack Align: May be called with mis-aligned SP.
 802              		@ args = 0, pretend = 0, frame = 0
 803              		@ frame_needed = 0, uses_anonymous_args = 0
 804 0000 6846     		mov	r0, sp
 805              		.cfi_register 13, 0
 806 0002 20F00701 		bic	r1, r0, #7
 807 0006 8D46     		mov	sp, r1
 808 0008 19B5     		push	{r0, r3, r4, lr}
 809              		.cfi_def_cfa_offset 16
 810              		.cfi_offset 13, -16
 811              		.cfi_offset 3, -12
 812              		.cfi_offset 4, -8
 813              		.cfi_offset 14, -4
 814              	.LVL79:
 815              	.LBB164:
 816              	.LBB165:
 211:Generated_Source\PSoC5/SimpleSystem_cortex_mx_ee_cpu.inc **** #endif	/* !__KEIL__ */
 817              		.loc 2 211 0
 818              		.syntax unified
 819              	@ 211 "Generated_Source\PSoC5/SimpleSystem_cortex_mx_ee_cpu.inc" 1
 820 000a 72B6     		cpsid i
 821              	@ 0 "" 2
 822              		.thumb
 823              		.syntax unified
 824              	.LBE165:
 825              	.LBE164:
 826              	.LBB166:
 827              	.LBB167:
 325:Generated_Source\PSoC5/SimpleSystem_cortex_mx_ee_cpu.inc **** #else
 828              		.loc 2 325 0
 829              		.syntax unified
 830              	@ 325 "Generated_Source\PSoC5/SimpleSystem_cortex_mx_ee_cpu.inc" 1
 831 000c EFF31184 		MRS r4, BASEPRI
 832              	@ 0 "" 2
ARM GAS  C:\Users\Reza\AppData\Local\Temp\cc7uXqLk.s 			page 32


 833              	.LVL80:
 834              		.thumb
 835              		.syntax unified
 836              	.LBE167:
 837              	.LBE166:
 838              	.LBB168:
 839              	.LBB169:
 372:Generated_Source\PSoC5/SimpleSystem_cortex_mx_ee_cpu.inc ****   register EE_TYPEISR2PRIO prio = 0;
 840              		.loc 2 372 0
 841 0010 1E4B     		ldr	r3, .L63
 842 0012 1B68     		ldr	r3, [r3]
 843 0014 DBB2     		uxtb	r3, r3
 844              	.LVL81:
 375:Generated_Source\PSoC5/SimpleSystem_cortex_mx_ee_cpu.inc ****     vectact -= EE_CORTEX_MX_SYSTICK_EXC_NUM + 1;
 845              		.loc 2 375 0
 846 0016 0F2B     		cmp	r3, #15
 847 0018 10D9     		bls	.L58
 376:Generated_Source\PSoC5/SimpleSystem_cortex_mx_ee_cpu.inc ****     prio = NVIC_GET_PRI(vectact);
 848              		.loc 2 376 0
 849 001a 103B     		subs	r3, r3, #16
 850              	.LVL82:
 377:Generated_Source\PSoC5/SimpleSystem_cortex_mx_ee_cpu.inc ****   }
 851              		.loc 2 377 0
 852 001c 23F00302 		bic	r2, r3, #3
 853 0020 02F16042 		add	r2, r2, #-536870912
 854 0024 02F56442 		add	r2, r2, #58368
 855 0028 1168     		ldr	r1, [r2]
 856 002a DB00     		lsls	r3, r3, #3
 857              	.LVL83:
 858 002c 03F01803 		and	r3, r3, #24
 859 0030 E022     		movs	r2, #224
 860 0032 9A40     		lsls	r2, r2, r3
 861 0034 0A40     		ands	r2, r2, r1
 862 0036 22FA03F3 		lsr	r3, r2, r3
 863              	.LVL84:
 864 003a 06E0     		b	.L59
 865              	.LVL85:
 866              	.L58:
 380:Generated_Source\PSoC5/SimpleSystem_cortex_mx_ee_cpu.inc ****     prio = NVIC_SYS_PRI3_R >> NVIC_SYS_PRI3_TICK_S;
 867              		.loc 2 380 0
 868 003c 0F2B     		cmp	r3, #15
 869 003e 03D1     		bne	.L62
 870              		.loc 2 381 0
 871 0040 134B     		ldr	r3, .L63+4
 872              	.LVL86:
 873 0042 1B68     		ldr	r3, [r3]
 874 0044 1B0E     		lsrs	r3, r3, #24
 875              	.LVL87:
 876 0046 00E0     		b	.L59
 877              	.LVL88:
 878              	.L62:
 373:Generated_Source\PSoC5/SimpleSystem_cortex_mx_ee_cpu.inc **** 
 879              		.loc 2 373 0
 880 0048 0023     		movs	r3, #0
 881              	.LVL89:
 882              	.L59:
 883              	.LBE169:
ARM GAS  C:\Users\Reza\AppData\Local\Temp\cc7uXqLk.s 			page 33


 884              	.LBE168:
 885              	.LBB170:
 886              	.LBB171:
 358:Generated_Source\PSoC5/SimpleSystem_cortex_mx_ee_cpu.inc **** #else
 887              		.loc 2 358 0
 888              		.syntax unified
 889              	@ 358 "Generated_Source\PSoC5/SimpleSystem_cortex_mx_ee_cpu.inc" 1
 890 004a 83F31188 		MSR BASEPRI, r3
 891              	@ 0 "" 2
 892              		.thumb
 893              		.syntax unified
 894              	.LBE171:
 895              	.LBE170:
 896              	.LBB172:
 897              	.LBB173:
  85:Generated_Source\PSoC5/SimpleSystem_common_ee_irqstub.inc **** /*  EE_std_enableIRQ_nested() and EE_std_disableIRQ_nested() must be defined in
 898              		.loc 3 85 0
 899 004e 114A     		ldr	r2, .L63+8
 900 0050 1368     		ldr	r3, [r2]
 901 0052 0133     		adds	r3, r3, #1
 902 0054 1360     		str	r3, [r2]
 903              	.LBE173:
 904              	.LBE172:
 205:source\asw/main.c **** {
 905              		.loc 1 205 0
 906 0056 012B     		cmp	r3, #1
 907 0058 01D1     		bne	.L60
 205:source\asw/main.c **** {
 908              		.loc 1 205 0 is_stmt 0 discriminator 1
 909 005a FFF7FEFF 		bl	EE_cortex_mx_change_IRQ_stack
 910              	.LVL90:
 911              	.L60:
 912              	.LBB174:
 913              	.LBB175:
 191:Generated_Source\PSoC5/SimpleSystem_cortex_mx_ee_cpu.inc **** #endif	/* !__KEIL__ */
 914              		.loc 2 191 0 is_stmt 1 discriminator 3
 915              		.syntax unified
 916              	@ 191 "Generated_Source\PSoC5/SimpleSystem_cortex_mx_ee_cpu.inc" 1
 917 005e 62B6     		cpsie i
 918              	@ 0 "" 2
 919              		.thumb
 920              		.syntax unified
 921              	.LBE175:
 922              	.LBE174:
 205:source\asw/main.c **** {
 923              		.loc 1 205 0 discriminator 3
 924 0060 FFF7FEFF 		bl	ISR2_isr_Button
 925              	.LVL91:
 926              	.LBB176:
 927              	.LBB177:
 211:Generated_Source\PSoC5/SimpleSystem_cortex_mx_ee_cpu.inc **** #endif	/* !__KEIL__ */
 928              		.loc 2 211 0 discriminator 3
 929              		.syntax unified
 930              	@ 211 "Generated_Source\PSoC5/SimpleSystem_cortex_mx_ee_cpu.inc" 1
 931 0064 72B6     		cpsid i
 932              	@ 0 "" 2
 933              	.LVL92:
ARM GAS  C:\Users\Reza\AppData\Local\Temp\cc7uXqLk.s 			page 34


 934              		.thumb
 935              		.syntax unified
 936              	.LBE177:
 937              	.LBE176:
 938              	.LBB178:
 939              	.LBB179:
 358:Generated_Source\PSoC5/SimpleSystem_cortex_mx_ee_cpu.inc **** #else
 940              		.loc 2 358 0 discriminator 3
 941              		.syntax unified
 942              	@ 358 "Generated_Source\PSoC5/SimpleSystem_cortex_mx_ee_cpu.inc" 1
 943 0066 84F31188 		MSR BASEPRI, r4
 944              	@ 0 "" 2
 945              	.LVL93:
 946              		.thumb
 947              		.syntax unified
 948              	.LBE179:
 949              	.LBE178:
 950              	.LBB180:
 951              	.LBB181:
 952              		.loc 3 102 0 discriminator 3
 953 006a FFF7FEFF 		bl	EE_IRQ_end_post_stub
 954              	.LVL94:
 955              	.LBE181:
 956              	.LBE180:
 957              	.LBB182:
 958              	.LBB183:
  84:Generated_Source\PSoC5/SimpleSystem_common_ee_irqstub.inc **** __INLINE__ void  EE_increment_IRQ_nesting_level(void) { ++EE_IRQ_nesting_level; }
 959              		.loc 3 84 0 discriminator 3
 960 006e 094A     		ldr	r2, .L63+8
 961 0070 1368     		ldr	r3, [r2]
 962 0072 013B     		subs	r3, r3, #1
 963 0074 1360     		str	r3, [r2]
 964              	.LBE183:
 965              	.LBE182:
 205:source\asw/main.c **** {
 966              		.loc 1 205 0 discriminator 3
 967 0076 1BB9     		cbnz	r3, .L61
 205:source\asw/main.c **** {
 968              		.loc 1 205 0 is_stmt 0 discriminator 4
 969 0078 FFF7FEFF 		bl	EE_cortex_mx_change_IRQ_stack_back
 970              	.LVL95:
 971              	.LBB184:
 972              	.LBB185:
 973              		.loc 4 68 0 is_stmt 1 discriminator 4
 974 007c FFF7FEFF 		bl	EE_switch_context
 975              	.LVL96:
 976              	.L61:
 977              	.LBE185:
 978              	.LBE184:
 979              	.LBB186:
 980              	.LBB187:
 191:Generated_Source\PSoC5/SimpleSystem_cortex_mx_ee_cpu.inc **** #endif	/* !__KEIL__ */
 981              		.loc 2 191 0 discriminator 6
 982              		.syntax unified
 983              	@ 191 "Generated_Source\PSoC5/SimpleSystem_cortex_mx_ee_cpu.inc" 1
 984 0080 62B6     		cpsie i
 985              	@ 0 "" 2
ARM GAS  C:\Users\Reza\AppData\Local\Temp\cc7uXqLk.s 			page 35


 986              		.thumb
 987              		.syntax unified
 988              	.LBE187:
 989              	.LBE186:
 205:source\asw/main.c **** {
 990              		.loc 1 205 0 discriminator 6
 991 0082 BDE81940 		pop	{r0, r3, r4, lr}
 992              		.cfi_restore 14
 993              		.cfi_restore 4
 994              		.cfi_restore 3
 995              		.cfi_restore 0
 996              		.cfi_def_cfa_offset 0
 997 0086 8546     		mov	sp, r0
 998 0088 7047     		bx	lr
 999              	.L64:
 1000 008a 00BF     		.align	2
 1001              	.L63:
 1002 008c 04ED00E0 		.word	-536810236
 1003 0090 20ED00E0 		.word	-536810208
 1004 0094 00000000 		.word	EE_IRQ_nesting_level
 1005              		.cfi_endproc
 1006              	.LFE124:
 1007              		.size	isr_Button, .-isr_Button
 1008              		.section	.text.ISR2_isr_Timer,"ax",%progbits
 1009              		.align	2
 1010              		.global	ISR2_isr_Timer
 1011              		.thumb
 1012              		.thumb_func
 1013              		.type	ISR2_isr_Timer, %function
 1014              	ISR2_isr_Timer:
 1015              	.LFB127:
 213:source\asw/main.c **** }
 214:source\asw/main.c **** 
 215:source\asw/main.c **** ISR2(isr_Timer)
 216:source\asw/main.c **** {
 1016              		.loc 1 216 0
 1017              		.cfi_startproc
 1018              		@ args = 0, pretend = 0, frame = 0
 1019              		@ frame_needed = 0, uses_anonymous_args = 0
 1020 0000 08B5     		push	{r3, lr}
 1021              		.cfi_def_cfa_offset 8
 1022              		.cfi_offset 3, -8
 1023              		.cfi_offset 14, -4
 217:source\asw/main.c ****     /*
 218:source\asw/main.c ****     static uint32_t a = 0;
 219:source\asw/main.c ****     a = (a+1) % 2;
 220:source\asw/main.c ****     SOUND_PWM_WriteCompare(a*255);
 221:source\asw/main.c ****     */
 222:source\asw/main.c ****     
 223:source\asw/main.c ****     SOUND_isr();
 1024              		.loc 1 223 0
 1025 0002 FFF7FEFF 		bl	SOUND_isr
 1026              	.LVL97:
 1027 0006 08BD     		pop	{r3, pc}
 1028              		.cfi_endproc
 1029              	.LFE127:
 1030              		.size	ISR2_isr_Timer, .-ISR2_isr_Timer
ARM GAS  C:\Users\Reza\AppData\Local\Temp\cc7uXqLk.s 			page 36


 1031              		.section	.text.isr_Timer,"ax",%progbits
 1032              		.align	2
 1033              		.global	isr_Timer
 1034              		.thumb
 1035              		.thumb_func
 1036              		.type	isr_Timer, %function
 1037              	isr_Timer:
 1038              	.LFB126:
 215:source\asw/main.c **** {
 1039              		.loc 1 215 0
 1040              		.cfi_startproc
 1041              		@ Stack Align: May be called with mis-aligned SP.
 1042              		@ args = 0, pretend = 0, frame = 0
 1043              		@ frame_needed = 0, uses_anonymous_args = 0
 1044 0000 6846     		mov	r0, sp
 1045              		.cfi_register 13, 0
 1046 0002 20F00701 		bic	r1, r0, #7
 1047 0006 8D46     		mov	sp, r1
 1048 0008 19B5     		push	{r0, r3, r4, lr}
 1049              		.cfi_def_cfa_offset 16
 1050              		.cfi_offset 13, -16
 1051              		.cfi_offset 3, -12
 1052              		.cfi_offset 4, -8
 1053              		.cfi_offset 14, -4
 1054              	.LVL98:
 1055              	.LBB212:
 1056              	.LBB213:
 211:Generated_Source\PSoC5/SimpleSystem_cortex_mx_ee_cpu.inc **** #endif	/* !__KEIL__ */
 1057              		.loc 2 211 0
 1058              		.syntax unified
 1059              	@ 211 "Generated_Source\PSoC5/SimpleSystem_cortex_mx_ee_cpu.inc" 1
 1060 000a 72B6     		cpsid i
 1061              	@ 0 "" 2
 1062              		.thumb
 1063              		.syntax unified
 1064              	.LBE213:
 1065              	.LBE212:
 1066              	.LBB214:
 1067              	.LBB215:
 325:Generated_Source\PSoC5/SimpleSystem_cortex_mx_ee_cpu.inc **** #else
 1068              		.loc 2 325 0
 1069              		.syntax unified
 1070              	@ 325 "Generated_Source\PSoC5/SimpleSystem_cortex_mx_ee_cpu.inc" 1
 1071 000c EFF31184 		MRS r4, BASEPRI
 1072              	@ 0 "" 2
 1073              	.LVL99:
 1074              		.thumb
 1075              		.syntax unified
 1076              	.LBE215:
 1077              	.LBE214:
 1078              	.LBB216:
 1079              	.LBB217:
 372:Generated_Source\PSoC5/SimpleSystem_cortex_mx_ee_cpu.inc ****   register EE_TYPEISR2PRIO prio = 0;
 1080              		.loc 2 372 0
 1081 0010 1E4B     		ldr	r3, .L73
 1082 0012 1B68     		ldr	r3, [r3]
 1083 0014 DBB2     		uxtb	r3, r3
ARM GAS  C:\Users\Reza\AppData\Local\Temp\cc7uXqLk.s 			page 37


 1084              	.LVL100:
 375:Generated_Source\PSoC5/SimpleSystem_cortex_mx_ee_cpu.inc ****     vectact -= EE_CORTEX_MX_SYSTICK_EXC_NUM + 1;
 1085              		.loc 2 375 0
 1086 0016 0F2B     		cmp	r3, #15
 1087 0018 10D9     		bls	.L68
 376:Generated_Source\PSoC5/SimpleSystem_cortex_mx_ee_cpu.inc ****     prio = NVIC_GET_PRI(vectact);
 1088              		.loc 2 376 0
 1089 001a 103B     		subs	r3, r3, #16
 1090              	.LVL101:
 377:Generated_Source\PSoC5/SimpleSystem_cortex_mx_ee_cpu.inc ****   }
 1091              		.loc 2 377 0
 1092 001c 23F00302 		bic	r2, r3, #3
 1093 0020 02F16042 		add	r2, r2, #-536870912
 1094 0024 02F56442 		add	r2, r2, #58368
 1095 0028 1168     		ldr	r1, [r2]
 1096 002a DB00     		lsls	r3, r3, #3
 1097              	.LVL102:
 1098 002c 03F01803 		and	r3, r3, #24
 1099 0030 E022     		movs	r2, #224
 1100 0032 9A40     		lsls	r2, r2, r3
 1101 0034 0A40     		ands	r2, r2, r1
 1102 0036 22FA03F3 		lsr	r3, r2, r3
 1103              	.LVL103:
 1104 003a 06E0     		b	.L69
 1105              	.LVL104:
 1106              	.L68:
 380:Generated_Source\PSoC5/SimpleSystem_cortex_mx_ee_cpu.inc ****     prio = NVIC_SYS_PRI3_R >> NVIC_SYS_PRI3_TICK_S;
 1107              		.loc 2 380 0
 1108 003c 0F2B     		cmp	r3, #15
 1109 003e 03D1     		bne	.L72
 1110              		.loc 2 381 0
 1111 0040 134B     		ldr	r3, .L73+4
 1112              	.LVL105:
 1113 0042 1B68     		ldr	r3, [r3]
 1114 0044 1B0E     		lsrs	r3, r3, #24
 1115              	.LVL106:
 1116 0046 00E0     		b	.L69
 1117              	.LVL107:
 1118              	.L72:
 373:Generated_Source\PSoC5/SimpleSystem_cortex_mx_ee_cpu.inc **** 
 1119              		.loc 2 373 0
 1120 0048 0023     		movs	r3, #0
 1121              	.LVL108:
 1122              	.L69:
 1123              	.LBE217:
 1124              	.LBE216:
 1125              	.LBB218:
 1126              	.LBB219:
 358:Generated_Source\PSoC5/SimpleSystem_cortex_mx_ee_cpu.inc **** #else
 1127              		.loc 2 358 0
 1128              		.syntax unified
 1129              	@ 358 "Generated_Source\PSoC5/SimpleSystem_cortex_mx_ee_cpu.inc" 1
 1130 004a 83F31188 		MSR BASEPRI, r3
 1131              	@ 0 "" 2
 1132              		.thumb
 1133              		.syntax unified
 1134              	.LBE219:
ARM GAS  C:\Users\Reza\AppData\Local\Temp\cc7uXqLk.s 			page 38


 1135              	.LBE218:
 1136              	.LBB220:
 1137              	.LBB221:
  85:Generated_Source\PSoC5/SimpleSystem_common_ee_irqstub.inc **** /*  EE_std_enableIRQ_nested() and EE_std_disableIRQ_nested() must be defined in
 1138              		.loc 3 85 0
 1139 004e 114A     		ldr	r2, .L73+8
 1140 0050 1368     		ldr	r3, [r2]
 1141 0052 0133     		adds	r3, r3, #1
 1142 0054 1360     		str	r3, [r2]
 1143              	.LBE221:
 1144              	.LBE220:
 215:source\asw/main.c **** {
 1145              		.loc 1 215 0
 1146 0056 012B     		cmp	r3, #1
 1147 0058 01D1     		bne	.L70
 215:source\asw/main.c **** {
 1148              		.loc 1 215 0 is_stmt 0 discriminator 1
 1149 005a FFF7FEFF 		bl	EE_cortex_mx_change_IRQ_stack
 1150              	.LVL109:
 1151              	.L70:
 1152              	.LBB222:
 1153              	.LBB223:
 191:Generated_Source\PSoC5/SimpleSystem_cortex_mx_ee_cpu.inc **** #endif	/* !__KEIL__ */
 1154              		.loc 2 191 0 is_stmt 1 discriminator 3
 1155              		.syntax unified
 1156              	@ 191 "Generated_Source\PSoC5/SimpleSystem_cortex_mx_ee_cpu.inc" 1
 1157 005e 62B6     		cpsie i
 1158              	@ 0 "" 2
 1159              		.thumb
 1160              		.syntax unified
 1161              	.LBE223:
 1162              	.LBE222:
 215:source\asw/main.c **** {
 1163              		.loc 1 215 0 discriminator 3
 1164 0060 FFF7FEFF 		bl	ISR2_isr_Timer
 1165              	.LVL110:
 1166              	.LBB224:
 1167              	.LBB225:
 211:Generated_Source\PSoC5/SimpleSystem_cortex_mx_ee_cpu.inc **** #endif	/* !__KEIL__ */
 1168              		.loc 2 211 0 discriminator 3
 1169              		.syntax unified
 1170              	@ 211 "Generated_Source\PSoC5/SimpleSystem_cortex_mx_ee_cpu.inc" 1
 1171 0064 72B6     		cpsid i
 1172              	@ 0 "" 2
 1173              	.LVL111:
 1174              		.thumb
 1175              		.syntax unified
 1176              	.LBE225:
 1177              	.LBE224:
 1178              	.LBB226:
 1179              	.LBB227:
 358:Generated_Source\PSoC5/SimpleSystem_cortex_mx_ee_cpu.inc **** #else
 1180              		.loc 2 358 0 discriminator 3
 1181              		.syntax unified
 1182              	@ 358 "Generated_Source\PSoC5/SimpleSystem_cortex_mx_ee_cpu.inc" 1
 1183 0066 84F31188 		MSR BASEPRI, r4
 1184              	@ 0 "" 2
ARM GAS  C:\Users\Reza\AppData\Local\Temp\cc7uXqLk.s 			page 39


 1185              	.LVL112:
 1186              		.thumb
 1187              		.syntax unified
 1188              	.LBE227:
 1189              	.LBE226:
 1190              	.LBB228:
 1191              	.LBB229:
 1192              		.loc 3 102 0 discriminator 3
 1193 006a FFF7FEFF 		bl	EE_IRQ_end_post_stub
 1194              	.LVL113:
 1195              	.LBE229:
 1196              	.LBE228:
 1197              	.LBB230:
 1198              	.LBB231:
  84:Generated_Source\PSoC5/SimpleSystem_common_ee_irqstub.inc **** __INLINE__ void  EE_increment_IRQ_nesting_level(void) { ++EE_IRQ_nesting_level; }
 1199              		.loc 3 84 0 discriminator 3
 1200 006e 094A     		ldr	r2, .L73+8
 1201 0070 1368     		ldr	r3, [r2]
 1202 0072 013B     		subs	r3, r3, #1
 1203 0074 1360     		str	r3, [r2]
 1204              	.LBE231:
 1205              	.LBE230:
 215:source\asw/main.c **** {
 1206              		.loc 1 215 0 discriminator 3
 1207 0076 1BB9     		cbnz	r3, .L71
 215:source\asw/main.c **** {
 1208              		.loc 1 215 0 is_stmt 0 discriminator 4
 1209 0078 FFF7FEFF 		bl	EE_cortex_mx_change_IRQ_stack_back
 1210              	.LVL114:
 1211              	.LBB232:
 1212              	.LBB233:
 1213              		.loc 4 68 0 is_stmt 1 discriminator 4
 1214 007c FFF7FEFF 		bl	EE_switch_context
 1215              	.LVL115:
 1216              	.L71:
 1217              	.LBE233:
 1218              	.LBE232:
 1219              	.LBB234:
 1220              	.LBB235:
 191:Generated_Source\PSoC5/SimpleSystem_cortex_mx_ee_cpu.inc **** #endif	/* !__KEIL__ */
 1221              		.loc 2 191 0 discriminator 6
 1222              		.syntax unified
 1223              	@ 191 "Generated_Source\PSoC5/SimpleSystem_cortex_mx_ee_cpu.inc" 1
 1224 0080 62B6     		cpsie i
 1225              	@ 0 "" 2
 1226              		.thumb
 1227              		.syntax unified
 1228              	.LBE235:
 1229              	.LBE234:
 215:source\asw/main.c **** {
 1230              		.loc 1 215 0 discriminator 6
 1231 0082 BDE81940 		pop	{r0, r3, r4, lr}
 1232              		.cfi_restore 14
 1233              		.cfi_restore 4
 1234              		.cfi_restore 3
 1235              		.cfi_restore 0
 1236              		.cfi_def_cfa_offset 0
ARM GAS  C:\Users\Reza\AppData\Local\Temp\cc7uXqLk.s 			page 40


 1237 0086 8546     		mov	sp, r0
 1238 0088 7047     		bx	lr
 1239              	.L74:
 1240 008a 00BF     		.align	2
 1241              	.L73:
 1242 008c 04ED00E0 		.word	-536810236
 1243 0090 20ED00E0 		.word	-536810208
 1244 0094 00000000 		.word	EE_IRQ_nesting_level
 1245              		.cfi_endproc
 1246              	.LFE126:
 1247              		.size	isr_Timer, .-isr_Timer
 1248              		.section	.rodata.str1.4,"aMS",%progbits,1
 1249              		.align	2
 1250              	.LC0:
 1251 0000 4D503320 		.ascii	"MP3 Player started...\012\000"
 1251      506C6179 
 1251      65722073 
 1251      74617274 
 1251      65642E2E 
 1252              		.text
 1253              	.Letext0:
 1254              		.file 6 "c:\\program files (x86)\\cypress\\psoc creator\\4.2\\psoc creator\\import\\gnu\\arm\\5.4.
 1255              		.file 7 "c:\\program files (x86)\\cypress\\psoc creator\\4.2\\psoc creator\\import\\gnu\\arm\\5.4.
 1256              		.file 8 "Generated_Source\\PSoC5/SimpleSystem_common_ee_types.inc"
 1257              		.file 9 "Generated_Source\\PSoC5/SimpleSystem_ee_oo_common.inc"
 1258              		.file 10 ".\\source\\bsw/global.h"
 1259              		.file 11 "source\\asw\\sound_data.h"
 1260              		.file 12 "Generated_Source\\PSoC5/SimpleSystem_ee_oo_intfunc.inc"
 1261              		.file 13 "Generated_Source\\PSoC5/SimpleSystem_cortex_mx_ee_context.inc"
 1262              		.file 14 "Generated_Source\\PSoC5/SimpleSystem_common_ee_primitives.inc"
 1263              		.file 15 "Generated_Source\\PSoC5/cmsis_gcc.h"
 1264              		.file 16 "Generated_Source\\PSoC5/core_cm3.h"
 1265              		.file 17 "Generated_Source\\PSoC5/SimpleSystem_ee_oo_kernel.inc"
 1266              		.file 18 "Generated_Source\\PSoC5/SimpleSystem_ee_oo_irq.inc"
 1267              		.file 19 "Generated_Source\\PSoC5/SimpleSystem_cortex_mx_ee_irq.inc"
 1268              		.file 20 "source\\asw\\sound.h"
 1269              		.file 21 "Generated_Source\\PSoC5/CyLib.h"
 1270              		.file 22 "Generated_Source\\PSoC5/SOUND_PWM.h"
 1271              		.file 23 "Generated_Source\\PSoC5/UART_LOG.h"
 1272              		.file 24 "Generated_Source\\PSoC5/SOUND_SAMPLE.h"
 1273              		.file 25 ".\\source\\bsw/led.h"
 1274              		.file 26 ".\\source\\bsw/seven.h"
 1275              		.file 27 "source\\asw\\mp3.h"
 1276              		.file 28 ".\\source\\bsw/button.h"
 1277              		.file 29 "Generated_Source\\PSoC5/isr_Button.h"