ARM GAS  C:\Users\Reza\AppData\Local\Temp\ccjmivOS.s 			page 1


   1              		.syntax unified
   2              		.cpu cortex-m3
   3              		.fpu softvfp
   4              		.eabi_attribute 20, 1
   5              		.eabi_attribute 21, 1
   6              		.eabi_attribute 23, 3
   7              		.eabi_attribute 24, 1
   8              		.eabi_attribute 25, 1
   9              		.eabi_attribute 26, 1
  10              		.eabi_attribute 30, 1
  11              		.eabi_attribute 34, 1
  12              		.eabi_attribute 18, 4
  13              		.thumb
  14              		.syntax unified
  15              		.file	"mp3.c"
  16              		.text
  17              	.Ltext0:
  18              		.cfi_sections	.debug_frame
  19              		.section	.text.MP3__nextSong,"ax",%progbits
  20              		.align	2
  21              		.global	MP3__nextSong
  22              		.thumb
  23              		.thumb_func
  24              		.type	MP3__nextSong, %function
  25              	MP3__nextSong:
  26              	.LFB116:
  27              		.file 1 "source\\asw\\mp3.c"
   1:source\asw/mp3.c **** /**
   2:source\asw/mp3.c **** * \file mp3.c
   3:source\asw/mp3.c **** * \author P. Fromm
   4:source\asw/mp3.c **** * \date 6.11.18
   5:source\asw/mp3.c **** *
   6:source\asw/mp3.c **** * \brief Sound driver
   7:source\asw/mp3.c **** *
   8:source\asw/mp3.c **** * \copyright Copyright ©2016
   9:source\asw/mp3.c **** * Department of electrical engineering and information technology, Hochschule Darmstadt - Universit
  10:source\asw/mp3.c **** * Permission to use, copy, modify, and distribute this software and its documentation for education
  11:source\asw/mp3.c **** * (unless permitted by h_da) and official h_da projects, is hereby granted for enrolled students of
  12:source\asw/mp3.c **** * this paragraph and the following paragraph appear in all copies, modifications, and distributions
  13:source\asw/mp3.c **** * Contact Prof.Dr.-Ing. Peter Fromm, peter.fromm@h-da.de, Birkenweg 8 64295 Darmstadt - GERMANY for
  14:source\asw/mp3.c **** *
  15:source\asw/mp3.c **** * \warning This software is a PROTOTYPE version and is not designed or intended for use in producti
  16:source\asw/mp3.c **** * The user represents and warrants that it will NOT use or redistribute the Software for such purpo
  17:source\asw/mp3.c **** * This prototype is for research purposes only. This software is provided "AS IS," without a warran
  18:source\asw/mp3.c **** */
  19:source\asw/mp3.c **** 
  20:source\asw/mp3.c **** /*****************************************************************************/
  21:source\asw/mp3.c **** /* Include files                                                             */
  22:source\asw/mp3.c **** /*****************************************************************************/
  23:source\asw/mp3.c **** #include "mp3.h"
  24:source\asw/mp3.c **** #include "sound.h"
  25:source\asw/mp3.c **** #include "sound_data.h"
  26:source\asw/mp3.c **** #include "seven.h"
  27:source\asw/mp3.c **** #include "button.h"
  28:source\asw/mp3.c **** #include "Smart_Volume.h"
  29:source\asw/mp3.c **** 
  30:source\asw/mp3.c **** /*****************************************************************************/
ARM GAS  C:\Users\Reza\AppData\Local\Temp\ccjmivOS.s 			page 2


  31:source\asw/mp3.c **** /* Local pre-processor symbols/macros ('#define')                            */
  32:source\asw/mp3.c **** /*****************************************************************************/
  33:source\asw/mp3.c **** 
  34:source\asw/mp3.c **** /*****************************************************************************/
  35:source\asw/mp3.c **** /* Global variable definitions (declared in header file with 'extern')       */
  36:source\asw/mp3.c **** /*****************************************************************************/
  37:source\asw/mp3.c **** 
  38:source\asw/mp3.c **** /*****************************************************************************/
  39:source\asw/mp3.c **** /* Local type definitions ('typedef')                                        */
  40:source\asw/mp3.c **** /*****************************************************************************/
  41:source\asw/mp3.c ****  enum eMP3__State{
  42:source\asw/mp3.c ****     MP3STATE_ISSTOPPED,
  43:source\asw/mp3.c ****     MP3STATE_ISPLAYING,
  44:source\asw/mp3.c ****     MP3STATE_ISPAUSING,
  45:source\asw/mp3.c **** } ;
  46:source\asw/mp3.c **** typedef enum eMP3__State MP3__State_t;
  47:source\asw/mp3.c **** 
  48:source\asw/mp3.c **** /*****************************************************************************/
  49:source\asw/mp3.c **** /* Local variable definitions ('static')                                     */
  50:source\asw/mp3.c **** /*****************************************************************************/
  51:source\asw/mp3.c **** 
  52:source\asw/mp3.c **** static struct
  53:source\asw/mp3.c **** {
  54:source\asw/mp3.c ****     MP3__State_t m_state;                       /**< \brief state of the state machine */
  55:source\asw/mp3.c ****     uint16_t     m_noSongs;                     /**< \brief number of songs in flash */
  56:source\asw/mp3.c ****     uint16_t     m_currentSong;                 /**< \brief song currently selected */
  57:source\asw/mp3.c ****     uint8_t      m_volume;                      /**< \brief volume */
  58:source\asw/mp3.c ****     uint16_t     m_remainingPlayTime;           /**< \brief remaining play time of the song */
  59:source\asw/mp3.c **** } MP3__player = {MP3STATE_ISSTOPPED, 0, 0, 0, 0};
  60:source\asw/mp3.c **** 
  61:source\asw/mp3.c **** 
  62:source\asw/mp3.c **** 
  63:source\asw/mp3.c **** /*****************************************************************************/
  64:source\asw/mp3.c **** /* Local function prototypes ('static')                                      */
  65:source\asw/mp3.c **** /*****************************************************************************/
  66:source\asw/mp3.c **** 
  67:source\asw/mp3.c **** void MP3__nextSong();               /**< \brief select the next song. Go to first in case of EOL */
  68:source\asw/mp3.c **** void MP3__prevSong();               /**< \brief select the previous song. Go to last in case of EOL
  69:source\asw/mp3.c **** 
  70:source\asw/mp3.c **** void MP3__increaseVolume(EventMaskType nextEvent);         /**< \brief increase the volume by one *
  71:source\asw/mp3.c **** void MP3__decreaseVolume(EventMaskType nextEvent);         /**< \brief decrease the volume by one *
  72:source\asw/mp3.c **** 
  73:source\asw/mp3.c **** void MP3__playSong();               /**< \brief set the sound record pointer to the current song an
  74:source\asw/mp3.c **** void MP3__stopSong();               /**< \brief Stop the clock for the timer ISR */
  75:source\asw/mp3.c **** void MP3__pauseSong();              /**< \brief Stop the clock for the timer ISR */
  76:source\asw/mp3.c **** void MP3__resumeSong();             /**< \brief Start the clock for the timer ISR */
  77:source\asw/mp3.c **** 
  78:source\asw/mp3.c **** void MP3__showSong();               /**< \brief Show the songs via uart */
  79:source\asw/mp3.c **** void MP3__showRemainingPlaytime();  /**< \brief Show the remaining play time via 7 segment */
  80:source\asw/mp3.c **** 
  81:source\asw/mp3.c **** boolean_t MP3__songEnded();         /**< \brief Check if the remaining playtime has ended */
  82:source\asw/mp3.c **** 
  83:source\asw/mp3.c **** void MP3__showEventAndState(EventMaskType ev, MP3__State_t state);  /**< \brief Helper function to 
  84:source\asw/mp3.c **** 
  85:source\asw/mp3.c **** 
  86:source\asw/mp3.c **** /*****************************************************************************/
  87:source\asw/mp3.c **** /* Function implementation - global ('extern') and local ('static')          */
ARM GAS  C:\Users\Reza\AppData\Local\Temp\ccjmivOS.s 			page 3


  88:source\asw/mp3.c **** /*****************************************************************************/
  89:source\asw/mp3.c **** 
  90:source\asw/mp3.c **** /**
  91:source\asw/mp3.c ****  * Init Function for the sound driver
  92:source\asw/mp3.c ****  * /return RC_SUCCESS
  93:source\asw/mp3.c ****  */
  94:source\asw/mp3.c **** RC_t MP3_Init()
  95:source\asw/mp3.c **** {
  96:source\asw/mp3.c ****     MP3__player.m_state = MP3STATE_ISSTOPPED;
  97:source\asw/mp3.c ****     MP3__player.m_noSongs = SOUND_NoOfRecords;
  98:source\asw/mp3.c ****     //MP3__player.m_volume = MP3__MAXVOLUME;
  99:source\asw/mp3.c ****     MP3__player.m_volume = 0;
 100:source\asw/mp3.c ****     MP3__player.m_currentSong = 0;
 101:source\asw/mp3.c **** 
 102:source\asw/mp3.c ****     MP3__showSong();
 103:source\asw/mp3.c ****     SEVEN_Set(SEVEN_1,MP3__player.m_volume%10);
 104:source\asw/mp3.c ****     SEVEN_Set(SEVEN_0,MP3__player.m_volume/10);
 105:source\asw/mp3.c ****     //SOUND_SetVolume(MP3__player.m_volume * 20);
 106:source\asw/mp3.c ****     
 107:source\asw/mp3.c ****     return RC_SUCCESS;
 108:source\asw/mp3.c **** }
 109:source\asw/mp3.c **** 
 110:source\asw/mp3.c **** /**
 111:source\asw/mp3.c ****  * The implementation of the MP3 Player State Machine
 112:source\asw/mp3.c ****  * /param EventMaskType nextEvent   : The event to be processed [IN]
 113:source\asw/mp3.c ****  * /return RC_SUCCESS
 114:source\asw/mp3.c ****  */
 115:source\asw/mp3.c **** RC_t MP3_ProcessEvent(EventMaskType nextEvent)
 116:source\asw/mp3.c **** {
 117:source\asw/mp3.c ****     //Debugging aid
 118:source\asw/mp3.c ****     //MP3__showEventAndState(nextEvent, MP3__player.m_state);
 119:source\asw/mp3.c ****     
 120:source\asw/mp3.c ****     
 121:source\asw/mp3.c ****     switch (MP3__player.m_state)
 122:source\asw/mp3.c ****     {
 123:source\asw/mp3.c ****         case MP3STATE_ISSTOPPED :
 124:source\asw/mp3.c ****             if (nextEvent & ev_Button1)
 125:source\asw/mp3.c ****             {
 126:source\asw/mp3.c ****                 MP3__prevSong();
 127:source\asw/mp3.c ****                 MP3__showSong();
 128:source\asw/mp3.c ****             }
 129:source\asw/mp3.c ****             else if (nextEvent & ev_Button2)
 130:source\asw/mp3.c ****             {
 131:source\asw/mp3.c ****                 MP3__nextSong();
 132:source\asw/mp3.c ****                 MP3__showSong();
 133:source\asw/mp3.c ****             }
 134:source\asw/mp3.c ****             else if (nextEvent & ev_Button3)
 135:source\asw/mp3.c ****             {
 136:source\asw/mp3.c ****                 MP3__playSong();
 137:source\asw/mp3.c ****                 MP3__showSong();
 138:source\asw/mp3.c ****                 MP3__player.m_state = MP3STATE_ISPLAYING;
 139:source\asw/mp3.c ****             }
 140:source\asw/mp3.c ****             break;
 141:source\asw/mp3.c **** 
 142:source\asw/mp3.c ****         case MP3STATE_ISPLAYING :
 143:source\asw/mp3.c ****             if (TRUE == BUTTON_IsPressed(BUTTON_1) 
 144:source\asw/mp3.c ****             && ((nextEvent & ev_Button1) || (nextEvent & ev_3000ms)||(nextEvent & ev_1000ms)
ARM GAS  C:\Users\Reza\AppData\Local\Temp\ccjmivOS.s 			page 4


 145:source\asw/mp3.c ****             || (nextEvent & ev_500ms) ||(nextEvent & ev_100ms)))         
 146:source\asw/mp3.c ****             { 
 147:source\asw/mp3.c ****                 MP3__increaseVolume(nextEvent);
 148:source\asw/mp3.c ****             }
 149:source\asw/mp3.c ****             if (TRUE == BUTTON_IsPressed(BUTTON_2) 
 150:source\asw/mp3.c ****             && ((nextEvent & ev_Button2) || (nextEvent & ev_3000ms)||(nextEvent & ev_1000ms)
 151:source\asw/mp3.c ****             || (nextEvent & ev_500ms) ||(nextEvent & ev_100ms)))         
 152:source\asw/mp3.c ****             {
 153:source\asw/mp3.c ****                 MP3__decreaseVolume(nextEvent);
 154:source\asw/mp3.c ****             }
 155:source\asw/mp3.c ****             else if (nextEvent & ev_Button3)
 156:source\asw/mp3.c ****             {
 157:source\asw/mp3.c ****                 MP3__pauseSong();
 158:source\asw/mp3.c ****                 MP3__player.m_state = MP3STATE_ISPAUSING;
 159:source\asw/mp3.c ****             }
 160:source\asw/mp3.c ****             else if (nextEvent & ev_Button4)
 161:source\asw/mp3.c ****             {
 162:source\asw/mp3.c ****                 MP3__stopSong();
 163:source\asw/mp3.c ****                 MP3__player.m_state = MP3STATE_ISSTOPPED;
 164:source\asw/mp3.c ****             }
 165:source\asw/mp3.c ****             else if (nextEvent & ev_1s && !MP3__songEnded())
 166:source\asw/mp3.c ****             {
 167:source\asw/mp3.c ****                 MP3__showRemainingPlaytime();
 168:source\asw/mp3.c ****             }
 169:source\asw/mp3.c ****             else if (nextEvent & ev_1s && MP3__songEnded())
 170:source\asw/mp3.c ****             {
 171:source\asw/mp3.c ****                 MP3__nextSong(); 
 172:source\asw/mp3.c ****                 MP3__playSong();
 173:source\asw/mp3.c ****                 MP3__showSong();
 174:source\asw/mp3.c ****             }
 175:source\asw/mp3.c ****             break;
 176:source\asw/mp3.c ****             
 177:source\asw/mp3.c ****         case MP3STATE_ISPAUSING :
 178:source\asw/mp3.c ****             if (nextEvent & ev_Button3)
 179:source\asw/mp3.c ****             {
 180:source\asw/mp3.c ****                 MP3__resumeSong();
 181:source\asw/mp3.c ****                 MP3__player.m_state = MP3STATE_ISPLAYING;
 182:source\asw/mp3.c ****             }
 183:source\asw/mp3.c ****             else if (nextEvent & ev_Button4)
 184:source\asw/mp3.c ****             {
 185:source\asw/mp3.c ****                 MP3__stopSong();
 186:source\asw/mp3.c ****                 MP3__player.m_state = MP3STATE_ISSTOPPED;
 187:source\asw/mp3.c ****             }
 188:source\asw/mp3.c **** 
 189:source\asw/mp3.c ****             break;
 190:source\asw/mp3.c ****     }
 191:source\asw/mp3.c ****     return RC_SUCCESS;
 192:source\asw/mp3.c **** }
 193:source\asw/mp3.c **** 
 194:source\asw/mp3.c **** 
 195:source\asw/mp3.c **** 
 196:source\asw/mp3.c **** 
 197:source\asw/mp3.c **** void MP3__nextSong()
 198:source\asw/mp3.c **** {
  28              		.loc 1 198 0
  29              		.cfi_startproc
  30              		@ args = 0, pretend = 0, frame = 0
ARM GAS  C:\Users\Reza\AppData\Local\Temp\ccjmivOS.s 			page 5


  31              		@ frame_needed = 0, uses_anonymous_args = 0
  32              		@ link register save eliminated.
 199:source\asw/mp3.c ****     MP3__player.m_currentSong++;
  33              		.loc 1 199 0
  34 0000 054A     		ldr	r2, .L2
  35 0002 9388     		ldrh	r3, [r2, #4]
  36 0004 0133     		adds	r3, r3, #1
  37 0006 9BB2     		uxth	r3, r3
 200:source\asw/mp3.c ****     MP3__player.m_currentSong %= MP3__player.m_noSongs;
  38              		.loc 1 200 0
  39 0008 5088     		ldrh	r0, [r2, #2]
  40 000a B3FBF0F1 		udiv	r1, r3, r0
  41 000e 00FB1133 		mls	r3, r0, r1, r3
  42 0012 9380     		strh	r3, [r2, #4]	@ movhi
  43 0014 7047     		bx	lr
  44              	.L3:
  45 0016 00BF     		.align	2
  46              	.L2:
  47 0018 00000000 		.word	.LANCHOR0
  48              		.cfi_endproc
  49              	.LFE116:
  50              		.size	MP3__nextSong, .-MP3__nextSong
  51              		.section	.text.MP3__prevSong,"ax",%progbits
  52              		.align	2
  53              		.global	MP3__prevSong
  54              		.thumb
  55              		.thumb_func
  56              		.type	MP3__prevSong, %function
  57              	MP3__prevSong:
  58              	.LFB117:
 201:source\asw/mp3.c ****     
 202:source\asw/mp3.c **** }
 203:source\asw/mp3.c **** 
 204:source\asw/mp3.c **** void MP3__prevSong()
 205:source\asw/mp3.c **** {
  59              		.loc 1 205 0
  60              		.cfi_startproc
  61              		@ args = 0, pretend = 0, frame = 0
  62              		@ frame_needed = 0, uses_anonymous_args = 0
  63              		@ link register save eliminated.
 206:source\asw/mp3.c ****     if (MP3__player.m_currentSong == 0)
  64              		.loc 1 206 0
  65 0000 054B     		ldr	r3, .L6
  66 0002 9B88     		ldrh	r3, [r3, #4]
  67 0004 1BB9     		cbnz	r3, .L5
 207:source\asw/mp3.c ****     {
 208:source\asw/mp3.c ****         MP3__player.m_currentSong += MP3__player.m_noSongs;
  68              		.loc 1 208 0
  69 0006 0449     		ldr	r1, .L6
  70 0008 4A88     		ldrh	r2, [r1, #2]
  71 000a 1344     		add	r3, r3, r2
  72 000c 8B80     		strh	r3, [r1, #4]	@ movhi
  73              	.L5:
 209:source\asw/mp3.c ****     }
 210:source\asw/mp3.c ****     MP3__player.m_currentSong--;
  74              		.loc 1 210 0
  75 000e 024A     		ldr	r2, .L6
ARM GAS  C:\Users\Reza\AppData\Local\Temp\ccjmivOS.s 			page 6


  76 0010 9388     		ldrh	r3, [r2, #4]
  77 0012 013B     		subs	r3, r3, #1
  78 0014 9380     		strh	r3, [r2, #4]	@ movhi
  79 0016 7047     		bx	lr
  80              	.L7:
  81              		.align	2
  82              	.L6:
  83 0018 00000000 		.word	.LANCHOR0
  84              		.cfi_endproc
  85              	.LFE117:
  86              		.size	MP3__prevSong, .-MP3__prevSong
  87              		.section	.text.MP3__increaseVolume,"ax",%progbits
  88              		.align	2
  89              		.global	MP3__increaseVolume
  90              		.thumb
  91              		.thumb_func
  92              		.type	MP3__increaseVolume, %function
  93              	MP3__increaseVolume:
  94              	.LFB118:
 211:source\asw/mp3.c **** }
 212:source\asw/mp3.c **** 
 213:source\asw/mp3.c **** void MP3__increaseVolume(EventMaskType nextEvent)
 214:source\asw/mp3.c **** {
  95              		.loc 1 214 0
  96              		.cfi_startproc
  97              		@ args = 0, pretend = 0, frame = 0
  98              		@ frame_needed = 0, uses_anonymous_args = 0
  99              	.LVL0:
 100 0000 38B5     		push	{r3, r4, r5, lr}
 101              		.cfi_def_cfa_offset 16
 102              		.cfi_offset 3, -16
 103              		.cfi_offset 4, -12
 104              		.cfi_offset 5, -8
 105              		.cfi_offset 14, -4
 215:source\asw/mp3.c ****     MP3__player.m_volume=MP3__increaseSmartVolume(nextEvent);
 106              		.loc 1 215 0
 107 0002 FFF7FEFF 		bl	MP3__increaseSmartVolume
 108              	.LVL1:
 109 0006 0C4D     		ldr	r5, .L10
 110 0008 A871     		strb	r0, [r5, #6]
 216:source\asw/mp3.c ****     SEVEN_Set(SEVEN_1,MP3__player.m_volume/10);
 111              		.loc 1 216 0
 112 000a 0C4C     		ldr	r4, .L10+4
 113 000c A4FB0031 		umull	r3, r1, r4, r0
 114 0010 C908     		lsrs	r1, r1, #3
 115 0012 0120     		movs	r0, #1
 116 0014 FFF7FEFF 		bl	SEVEN_Set
 117              	.LVL2:
 217:source\asw/mp3.c ****     SEVEN_Set(SEVEN_0,MP3__player.m_volume%10);
 118              		.loc 1 217 0
 119 0018 AB79     		ldrb	r3, [r5, #6]	@ zero_extendqisi2
 120 001a A4FB0324 		umull	r2, r4, r4, r3
 121 001e E408     		lsrs	r4, r4, #3
 122 0020 04EB8404 		add	r4, r4, r4, lsl #2
 123 0024 6100     		lsls	r1, r4, #1
 124 0026 591A     		subs	r1, r3, r1
 125 0028 C9B2     		uxtb	r1, r1
ARM GAS  C:\Users\Reza\AppData\Local\Temp\ccjmivOS.s 			page 7


 126 002a 0020     		movs	r0, #0
 127 002c FFF7FEFF 		bl	SEVEN_Set
 128              	.LVL3:
 218:source\asw/mp3.c ****     SOUND_SetVolume(MP3__player.m_volume);
 129              		.loc 1 218 0
 130 0030 A879     		ldrb	r0, [r5, #6]	@ zero_extendqisi2
 131 0032 FFF7FEFF 		bl	SOUND_SetVolume
 132              	.LVL4:
 133 0036 38BD     		pop	{r3, r4, r5, pc}
 134              	.L11:
 135              		.align	2
 136              	.L10:
 137 0038 00000000 		.word	.LANCHOR0
 138 003c CDCCCCCC 		.word	-858993459
 139              		.cfi_endproc
 140              	.LFE118:
 141              		.size	MP3__increaseVolume, .-MP3__increaseVolume
 142              		.section	.text.MP3__decreaseVolume,"ax",%progbits
 143              		.align	2
 144              		.global	MP3__decreaseVolume
 145              		.thumb
 146              		.thumb_func
 147              		.type	MP3__decreaseVolume, %function
 148              	MP3__decreaseVolume:
 149              	.LFB119:
 219:source\asw/mp3.c **** }
 220:source\asw/mp3.c **** 
 221:source\asw/mp3.c **** void MP3__decreaseVolume(EventMaskType nextEvent)
 222:source\asw/mp3.c **** {
 150              		.loc 1 222 0
 151              		.cfi_startproc
 152              		@ args = 0, pretend = 0, frame = 0
 153              		@ frame_needed = 0, uses_anonymous_args = 0
 154              	.LVL5:
 155 0000 38B5     		push	{r3, r4, r5, lr}
 156              		.cfi_def_cfa_offset 16
 157              		.cfi_offset 3, -16
 158              		.cfi_offset 4, -12
 159              		.cfi_offset 5, -8
 160              		.cfi_offset 14, -4
 223:source\asw/mp3.c ****     MP3__player.m_volume=MP3__decreaseSmartVolume(nextEvent);
 161              		.loc 1 223 0
 162 0002 FFF7FEFF 		bl	MP3__decreaseSmartVolume
 163              	.LVL6:
 164 0006 0C4D     		ldr	r5, .L14
 165 0008 A871     		strb	r0, [r5, #6]
 224:source\asw/mp3.c ****     SEVEN_Set(SEVEN_1,MP3__player.m_volume/10);
 166              		.loc 1 224 0
 167 000a 0C4C     		ldr	r4, .L14+4
 168 000c A4FB0031 		umull	r3, r1, r4, r0
 169 0010 C908     		lsrs	r1, r1, #3
 170 0012 0120     		movs	r0, #1
 171 0014 FFF7FEFF 		bl	SEVEN_Set
 172              	.LVL7:
 225:source\asw/mp3.c ****     SEVEN_Set(SEVEN_0,MP3__player.m_volume%10);
 173              		.loc 1 225 0
 174 0018 AB79     		ldrb	r3, [r5, #6]	@ zero_extendqisi2
ARM GAS  C:\Users\Reza\AppData\Local\Temp\ccjmivOS.s 			page 8


 175 001a A4FB0324 		umull	r2, r4, r4, r3
 176 001e E408     		lsrs	r4, r4, #3
 177 0020 04EB8404 		add	r4, r4, r4, lsl #2
 178 0024 6100     		lsls	r1, r4, #1
 179 0026 591A     		subs	r1, r3, r1
 180 0028 C9B2     		uxtb	r1, r1
 181 002a 0020     		movs	r0, #0
 182 002c FFF7FEFF 		bl	SEVEN_Set
 183              	.LVL8:
 226:source\asw/mp3.c ****     SOUND_SetVolume(MP3__player.m_volume);
 184              		.loc 1 226 0
 185 0030 A879     		ldrb	r0, [r5, #6]	@ zero_extendqisi2
 186 0032 FFF7FEFF 		bl	SOUND_SetVolume
 187              	.LVL9:
 188 0036 38BD     		pop	{r3, r4, r5, pc}
 189              	.L15:
 190              		.align	2
 191              	.L14:
 192 0038 00000000 		.word	.LANCHOR0
 193 003c CDCCCCCC 		.word	-858993459
 194              		.cfi_endproc
 195              	.LFE119:
 196              		.size	MP3__decreaseVolume, .-MP3__decreaseVolume
 197              		.section	.text.MP3__playSong,"ax",%progbits
 198              		.align	2
 199              		.global	MP3__playSong
 200              		.thumb
 201              		.thumb_func
 202              		.type	MP3__playSong, %function
 203              	MP3__playSong:
 204              	.LFB120:
 227:source\asw/mp3.c **** }
 228:source\asw/mp3.c **** 
 229:source\asw/mp3.c **** void MP3__playSong()
 230:source\asw/mp3.c **** {
 205              		.loc 1 230 0
 206              		.cfi_startproc
 207              		@ args = 0, pretend = 0, frame = 0
 208              		@ frame_needed = 0, uses_anonymous_args = 0
 209 0000 08B5     		push	{r3, lr}
 210              		.cfi_def_cfa_offset 8
 211              		.cfi_offset 3, -8
 212              		.cfi_offset 14, -4
 231:source\asw/mp3.c ****     MP3__player.m_remainingPlayTime = SOUND_Records[MP3__player.m_currentSong].m_length;
 213              		.loc 1 231 0
 214 0002 074A     		ldr	r2, .L18
 215 0004 9188     		ldrh	r1, [r2, #4]
 216 0006 074B     		ldr	r3, .L18+4
 217 0008 03EB0113 		add	r3, r3, r1, lsl #4
 218 000c 9988     		ldrh	r1, [r3, #4]
 219 000e 1181     		strh	r1, [r2, #8]	@ movhi
 232:source\asw/mp3.c ****     SOUND_SetSong(SOUND_Records[MP3__player.m_currentSong].m_data, SOUND_Records[MP3__player.m_curr
 220              		.loc 1 232 0
 221 0010 9968     		ldr	r1, [r3, #8]
 222 0012 D868     		ldr	r0, [r3, #12]
 223 0014 FFF7FEFF 		bl	SOUND_SetSong
 224              	.LVL10:
ARM GAS  C:\Users\Reza\AppData\Local\Temp\ccjmivOS.s 			page 9


 233:source\asw/mp3.c ****     SOUND_StartPlay();
 225              		.loc 1 233 0
 226 0018 FFF7FEFF 		bl	SOUND_StartPlay
 227              	.LVL11:
 228 001c 08BD     		pop	{r3, pc}
 229              	.L19:
 230 001e 00BF     		.align	2
 231              	.L18:
 232 0020 00000000 		.word	.LANCHOR0
 233 0024 00000000 		.word	SOUND_Records
 234              		.cfi_endproc
 235              	.LFE120:
 236              		.size	MP3__playSong, .-MP3__playSong
 237              		.section	.text.MP3__stopSong,"ax",%progbits
 238              		.align	2
 239              		.global	MP3__stopSong
 240              		.thumb
 241              		.thumb_func
 242              		.type	MP3__stopSong, %function
 243              	MP3__stopSong:
 244              	.LFB121:
 234:source\asw/mp3.c **** }
 235:source\asw/mp3.c **** 
 236:source\asw/mp3.c **** void MP3__stopSong()
 237:source\asw/mp3.c **** {
 245              		.loc 1 237 0
 246              		.cfi_startproc
 247              		@ args = 0, pretend = 0, frame = 0
 248              		@ frame_needed = 0, uses_anonymous_args = 0
 249 0000 08B5     		push	{r3, lr}
 250              		.cfi_def_cfa_offset 8
 251              		.cfi_offset 3, -8
 252              		.cfi_offset 14, -4
 238:source\asw/mp3.c ****     SOUND_StopPlay();
 253              		.loc 1 238 0
 254 0002 FFF7FEFF 		bl	SOUND_StopPlay
 255              	.LVL12:
 256 0006 08BD     		pop	{r3, pc}
 257              		.cfi_endproc
 258              	.LFE121:
 259              		.size	MP3__stopSong, .-MP3__stopSong
 260              		.section	.text.MP3__pauseSong,"ax",%progbits
 261              		.align	2
 262              		.global	MP3__pauseSong
 263              		.thumb
 264              		.thumb_func
 265              		.type	MP3__pauseSong, %function
 266              	MP3__pauseSong:
 267              	.LFB122:
 239:source\asw/mp3.c **** }
 240:source\asw/mp3.c **** 
 241:source\asw/mp3.c **** void MP3__pauseSong()
 242:source\asw/mp3.c **** {
 268              		.loc 1 242 0
 269              		.cfi_startproc
 270              		@ args = 0, pretend = 0, frame = 0
 271              		@ frame_needed = 0, uses_anonymous_args = 0
ARM GAS  C:\Users\Reza\AppData\Local\Temp\ccjmivOS.s 			page 10


 272 0000 08B5     		push	{r3, lr}
 273              		.cfi_def_cfa_offset 8
 274              		.cfi_offset 3, -8
 275              		.cfi_offset 14, -4
 243:source\asw/mp3.c ****    SOUND_StopPlay(); 
 276              		.loc 1 243 0
 277 0002 FFF7FEFF 		bl	SOUND_StopPlay
 278              	.LVL13:
 279 0006 08BD     		pop	{r3, pc}
 280              		.cfi_endproc
 281              	.LFE122:
 282              		.size	MP3__pauseSong, .-MP3__pauseSong
 283              		.section	.text.MP3__resumeSong,"ax",%progbits
 284              		.align	2
 285              		.global	MP3__resumeSong
 286              		.thumb
 287              		.thumb_func
 288              		.type	MP3__resumeSong, %function
 289              	MP3__resumeSong:
 290              	.LFB123:
 244:source\asw/mp3.c **** }
 245:source\asw/mp3.c **** 
 246:source\asw/mp3.c **** void MP3__resumeSong()
 247:source\asw/mp3.c **** {
 291              		.loc 1 247 0
 292              		.cfi_startproc
 293              		@ args = 0, pretend = 0, frame = 0
 294              		@ frame_needed = 0, uses_anonymous_args = 0
 295 0000 08B5     		push	{r3, lr}
 296              		.cfi_def_cfa_offset 8
 297              		.cfi_offset 3, -8
 298              		.cfi_offset 14, -4
 248:source\asw/mp3.c ****     SOUND_StartPlay();
 299              		.loc 1 248 0
 300 0002 FFF7FEFF 		bl	SOUND_StartPlay
 301              	.LVL14:
 302 0006 08BD     		pop	{r3, pc}
 303              		.cfi_endproc
 304              	.LFE123:
 305              		.size	MP3__resumeSong, .-MP3__resumeSong
 306              		.section	.text.MP3__showSong,"ax",%progbits
 307              		.align	2
 308              		.global	MP3__showSong
 309              		.thumb
 310              		.thumb_func
 311              		.type	MP3__showSong, %function
 312              	MP3__showSong:
 313              	.LFB124:
 249:source\asw/mp3.c **** }
 250:source\asw/mp3.c **** 
 251:source\asw/mp3.c **** void MP3__showSong()
 252:source\asw/mp3.c **** {
 314              		.loc 1 252 0
 315              		.cfi_startproc
 316              		@ args = 0, pretend = 0, frame = 0
 317              		@ frame_needed = 0, uses_anonymous_args = 0
 318 0000 10B5     		push	{r4, lr}
ARM GAS  C:\Users\Reza\AppData\Local\Temp\ccjmivOS.s 			page 11


 319              		.cfi_def_cfa_offset 8
 320              		.cfi_offset 4, -8
 321              		.cfi_offset 14, -4
 253:source\asw/mp3.c ****     UART_LOG_PutString("\n\n===================\n");
 322              		.loc 1 253 0
 323 0002 0F48     		ldr	r0, .L32
 324 0004 FFF7FEFF 		bl	UART_LOG_PutString
 325              	.LVL15:
 326              	.LBB2:
 254:source\asw/mp3.c ****     
 255:source\asw/mp3.c ****     for (uint16_t i = 0; i < MP3__player.m_noSongs; i++)
 327              		.loc 1 255 0
 328 0008 0024     		movs	r4, #0
 329 000a 14E0     		b	.L27
 330              	.LVL16:
 331              	.L30:
 256:source\asw/mp3.c ****     {
 257:source\asw/mp3.c ****         if (i == MP3__player.m_currentSong)
 332              		.loc 1 257 0
 333 000c 0D4B     		ldr	r3, .L32+4
 334 000e 9B88     		ldrh	r3, [r3, #4]
 335 0010 9C42     		cmp	r4, r3
 336 0012 03D1     		bne	.L28
 258:source\asw/mp3.c ****         {
 259:source\asw/mp3.c ****             UART_LOG_PutString("(*)");
 337              		.loc 1 259 0
 338 0014 0C48     		ldr	r0, .L32+8
 339 0016 FFF7FEFF 		bl	UART_LOG_PutString
 340              	.LVL17:
 341 001a 02E0     		b	.L29
 342              	.L28:
 260:source\asw/mp3.c ****         }
 261:source\asw/mp3.c ****         else
 262:source\asw/mp3.c ****         {
 263:source\asw/mp3.c ****             UART_LOG_PutString("( )");
 343              		.loc 1 263 0
 344 001c 0B48     		ldr	r0, .L32+12
 345 001e FFF7FEFF 		bl	UART_LOG_PutString
 346              	.LVL18:
 347              	.L29:
 264:source\asw/mp3.c ****         }
 265:source\asw/mp3.c ****         UART_LOG_PutString(SOUND_Records[i].m_title);
 348              		.loc 1 265 0 discriminator 2
 349 0022 2301     		lsls	r3, r4, #4
 350 0024 0A4A     		ldr	r2, .L32+16
 351 0026 D058     		ldr	r0, [r2, r3]
 352 0028 FFF7FEFF 		bl	UART_LOG_PutString
 353              	.LVL19:
 266:source\asw/mp3.c ****         UART_LOG_PutString("\n");
 354              		.loc 1 266 0 discriminator 2
 355 002c 0948     		ldr	r0, .L32+20
 356 002e FFF7FEFF 		bl	UART_LOG_PutString
 357              	.LVL20:
 255:source\asw/mp3.c ****     {
 358              		.loc 1 255 0 discriminator 2
 359 0032 0134     		adds	r4, r4, #1
 360              	.LVL21:
ARM GAS  C:\Users\Reza\AppData\Local\Temp\ccjmivOS.s 			page 12


 361 0034 A4B2     		uxth	r4, r4
 362              	.LVL22:
 363              	.L27:
 255:source\asw/mp3.c ****     {
 364              		.loc 1 255 0 is_stmt 0 discriminator 1
 365 0036 034B     		ldr	r3, .L32+4
 366 0038 5B88     		ldrh	r3, [r3, #2]
 367 003a 9C42     		cmp	r4, r3
 368 003c E6D3     		bcc	.L30
 369              	.LBE2:
 267:source\asw/mp3.c ****     }
 268:source\asw/mp3.c ****     
 269:source\asw/mp3.c **** 
 270:source\asw/mp3.c **** }
 370              		.loc 1 270 0 is_stmt 1
 371 003e 10BD     		pop	{r4, pc}
 372              	.LVL23:
 373              	.L33:
 374              		.align	2
 375              	.L32:
 376 0040 00000000 		.word	.LC0
 377 0044 00000000 		.word	.LANCHOR0
 378 0048 18000000 		.word	.LC1
 379 004c 1C000000 		.word	.LC2
 380 0050 00000000 		.word	SOUND_Records
 381 0054 20000000 		.word	.LC3
 382              		.cfi_endproc
 383              	.LFE124:
 384              		.size	MP3__showSong, .-MP3__showSong
 385              		.section	.text.MP3_Init,"ax",%progbits
 386              		.align	2
 387              		.global	MP3_Init
 388              		.thumb
 389              		.thumb_func
 390              		.type	MP3_Init, %function
 391              	MP3_Init:
 392              	.LFB114:
  95:source\asw/mp3.c ****     MP3__player.m_state = MP3STATE_ISSTOPPED;
 393              		.loc 1 95 0
 394              		.cfi_startproc
 395              		@ args = 0, pretend = 0, frame = 0
 396              		@ frame_needed = 0, uses_anonymous_args = 0
 397 0000 70B5     		push	{r4, r5, r6, lr}
 398              		.cfi_def_cfa_offset 16
 399              		.cfi_offset 4, -16
 400              		.cfi_offset 5, -12
 401              		.cfi_offset 6, -8
 402              		.cfi_offset 14, -4
  96:source\asw/mp3.c ****     MP3__player.m_noSongs = SOUND_NoOfRecords;
 403              		.loc 1 96 0
 404 0002 104C     		ldr	r4, .L36
 405 0004 0025     		movs	r5, #0
 406 0006 2570     		strb	r5, [r4]
  97:source\asw/mp3.c ****     //MP3__player.m_volume = MP3__MAXVOLUME;
 407              		.loc 1 97 0
 408 0008 0F4B     		ldr	r3, .L36+4
 409 000a 1B88     		ldrh	r3, [r3]
ARM GAS  C:\Users\Reza\AppData\Local\Temp\ccjmivOS.s 			page 13


 410 000c 6380     		strh	r3, [r4, #2]	@ movhi
  99:source\asw/mp3.c ****     MP3__player.m_currentSong = 0;
 411              		.loc 1 99 0
 412 000e A571     		strb	r5, [r4, #6]
 100:source\asw/mp3.c **** 
 413              		.loc 1 100 0
 414 0010 A580     		strh	r5, [r4, #4]	@ movhi
 102:source\asw/mp3.c ****     SEVEN_Set(SEVEN_1,MP3__player.m_volume%10);
 415              		.loc 1 102 0
 416 0012 FFF7FEFF 		bl	MP3__showSong
 417              	.LVL24:
 103:source\asw/mp3.c ****     SEVEN_Set(SEVEN_0,MP3__player.m_volume/10);
 418              		.loc 1 103 0
 419 0016 A279     		ldrb	r2, [r4, #6]	@ zero_extendqisi2
 420 0018 0C4E     		ldr	r6, .L36+8
 421 001a A6FB0213 		umull	r1, r3, r6, r2
 422 001e DB08     		lsrs	r3, r3, #3
 423 0020 03EB8303 		add	r3, r3, r3, lsl #2
 424 0024 5900     		lsls	r1, r3, #1
 425 0026 511A     		subs	r1, r2, r1
 426 0028 C9B2     		uxtb	r1, r1
 427 002a 0120     		movs	r0, #1
 428 002c FFF7FEFF 		bl	SEVEN_Set
 429              	.LVL25:
 104:source\asw/mp3.c ****     //SOUND_SetVolume(MP3__player.m_volume * 20);
 430              		.loc 1 104 0
 431 0030 A179     		ldrb	r1, [r4, #6]	@ zero_extendqisi2
 432 0032 A6FB0131 		umull	r3, r1, r6, r1
 433 0036 C908     		lsrs	r1, r1, #3
 434 0038 2846     		mov	r0, r5
 435 003a FFF7FEFF 		bl	SEVEN_Set
 436              	.LVL26:
 108:source\asw/mp3.c **** 
 437              		.loc 1 108 0
 438 003e 2846     		mov	r0, r5
 439 0040 70BD     		pop	{r4, r5, r6, pc}
 440              	.L37:
 441 0042 00BF     		.align	2
 442              	.L36:
 443 0044 00000000 		.word	.LANCHOR0
 444 0048 00000000 		.word	SOUND_NoOfRecords
 445 004c CDCCCCCC 		.word	-858993459
 446              		.cfi_endproc
 447              	.LFE114:
 448              		.size	MP3_Init, .-MP3_Init
 449              		.section	.text.MP3__showRemainingPlaytime,"ax",%progbits
 450              		.align	2
 451              		.global	MP3__showRemainingPlaytime
 452              		.thumb
 453              		.thumb_func
 454              		.type	MP3__showRemainingPlaytime, %function
 455              	MP3__showRemainingPlaytime:
 456              	.LFB125:
 271:source\asw/mp3.c **** 
 272:source\asw/mp3.c **** void MP3__showRemainingPlaytime()
 273:source\asw/mp3.c **** {
 457              		.loc 1 273 0
ARM GAS  C:\Users\Reza\AppData\Local\Temp\ccjmivOS.s 			page 14


 458              		.cfi_startproc
 459              		@ args = 0, pretend = 0, frame = 0
 460              		@ frame_needed = 0, uses_anonymous_args = 0
 461              		@ link register save eliminated.
 274:source\asw/mp3.c ****     MP3__player.m_remainingPlayTime--;
 462              		.loc 1 274 0
 463 0000 024A     		ldr	r2, .L39
 464 0002 1389     		ldrh	r3, [r2, #8]
 465 0004 013B     		subs	r3, r3, #1
 466 0006 1381     		strh	r3, [r2, #8]	@ movhi
 467 0008 7047     		bx	lr
 468              	.L40:
 469 000a 00BF     		.align	2
 470              	.L39:
 471 000c 00000000 		.word	.LANCHOR0
 472              		.cfi_endproc
 473              	.LFE125:
 474              		.size	MP3__showRemainingPlaytime, .-MP3__showRemainingPlaytime
 475              		.section	.text.MP3__songEnded,"ax",%progbits
 476              		.align	2
 477              		.global	MP3__songEnded
 478              		.thumb
 479              		.thumb_func
 480              		.type	MP3__songEnded, %function
 481              	MP3__songEnded:
 482              	.LFB126:
 275:source\asw/mp3.c ****     //SEVEN_Set(SEVEN_0,MP3__player.m_remainingPlayTime);
 276:source\asw/mp3.c ****     
 277:source\asw/mp3.c **** }
 278:source\asw/mp3.c **** 
 279:source\asw/mp3.c **** boolean_t MP3__songEnded()
 280:source\asw/mp3.c **** {
 483              		.loc 1 280 0
 484              		.cfi_startproc
 485              		@ args = 0, pretend = 0, frame = 0
 486              		@ frame_needed = 0, uses_anonymous_args = 0
 487              		@ link register save eliminated.
 281:source\asw/mp3.c ****     return MP3__player.m_remainingPlayTime == 0;
 488              		.loc 1 281 0
 489 0000 024B     		ldr	r3, .L42
 490 0002 1889     		ldrh	r0, [r3, #8]
 282:source\asw/mp3.c **** }
 491              		.loc 1 282 0
 492 0004 B0FA80F0 		clz	r0, r0
 493 0008 4009     		lsrs	r0, r0, #5
 494 000a 7047     		bx	lr
 495              	.L43:
 496              		.align	2
 497              	.L42:
 498 000c 00000000 		.word	.LANCHOR0
 499              		.cfi_endproc
 500              	.LFE126:
 501              		.size	MP3__songEnded, .-MP3__songEnded
 502              		.section	.text.MP3_ProcessEvent,"ax",%progbits
 503              		.align	2
 504              		.global	MP3_ProcessEvent
 505              		.thumb
ARM GAS  C:\Users\Reza\AppData\Local\Temp\ccjmivOS.s 			page 15


 506              		.thumb_func
 507              		.type	MP3_ProcessEvent, %function
 508              	MP3_ProcessEvent:
 509              	.LFB115:
 116:source\asw/mp3.c ****     //Debugging aid
 510              		.loc 1 116 0
 511              		.cfi_startproc
 512              		@ args = 0, pretend = 0, frame = 0
 513              		@ frame_needed = 0, uses_anonymous_args = 0
 514              	.LVL27:
 515 0000 10B5     		push	{r4, lr}
 516              		.cfi_def_cfa_offset 8
 517              		.cfi_offset 4, -8
 518              		.cfi_offset 14, -4
 519 0002 0446     		mov	r4, r0
 121:source\asw/mp3.c ****     {
 520              		.loc 1 121 0
 521 0004 394B     		ldr	r3, .L58
 522 0006 1B78     		ldrb	r3, [r3]	@ zero_extendqisi2
 523 0008 012B     		cmp	r3, #1
 524 000a 1ED0     		beq	.L46
 525 000c 13B1     		cbz	r3, .L47
 526 000e 022B     		cmp	r3, #2
 527 0010 59D0     		beq	.L48
 528 0012 69E0     		b	.L45
 529              	.L47:
 124:source\asw/mp3.c ****             {
 530              		.loc 1 124 0
 531 0014 10F0010F 		tst	r0, #1
 532 0018 04D0     		beq	.L49
 126:source\asw/mp3.c ****                 MP3__showSong();
 533              		.loc 1 126 0
 534 001a FFF7FEFF 		bl	MP3__prevSong
 535              	.LVL28:
 127:source\asw/mp3.c ****             }
 536              		.loc 1 127 0
 537 001e FFF7FEFF 		bl	MP3__showSong
 538              	.LVL29:
 539 0022 61E0     		b	.L45
 540              	.LVL30:
 541              	.L49:
 129:source\asw/mp3.c ****             {
 542              		.loc 1 129 0
 543 0024 10F0020F 		tst	r0, #2
 544 0028 04D0     		beq	.L50
 131:source\asw/mp3.c ****                 MP3__showSong();
 545              		.loc 1 131 0
 546 002a FFF7FEFF 		bl	MP3__nextSong
 547              	.LVL31:
 132:source\asw/mp3.c ****             }
 548              		.loc 1 132 0
 549 002e FFF7FEFF 		bl	MP3__showSong
 550              	.LVL32:
 551 0032 59E0     		b	.L45
 552              	.LVL33:
 553              	.L50:
 134:source\asw/mp3.c ****             {
ARM GAS  C:\Users\Reza\AppData\Local\Temp\ccjmivOS.s 			page 16


 554              		.loc 1 134 0
 555 0034 10F0080F 		tst	r0, #8
 556 0038 56D0     		beq	.L45
 136:source\asw/mp3.c ****                 MP3__showSong();
 557              		.loc 1 136 0
 558 003a FFF7FEFF 		bl	MP3__playSong
 559              	.LVL34:
 137:source\asw/mp3.c ****                 MP3__player.m_state = MP3STATE_ISPLAYING;
 560              		.loc 1 137 0
 561 003e FFF7FEFF 		bl	MP3__showSong
 562              	.LVL35:
 138:source\asw/mp3.c ****             }
 563              		.loc 1 138 0
 564 0042 0122     		movs	r2, #1
 565 0044 294B     		ldr	r3, .L58
 566 0046 1A70     		strb	r2, [r3]
 567 0048 4EE0     		b	.L45
 568              	.LVL36:
 569              	.L46:
 143:source\asw/mp3.c ****             && ((nextEvent & ev_Button1) || (nextEvent & ev_3000ms)||(nextEvent & ev_1000ms)
 570              		.loc 1 143 0
 571 004a 0020     		movs	r0, #0
 572              	.LVL37:
 573 004c FFF7FEFF 		bl	BUTTON_IsPressed
 574              	.LVL38:
 575 0050 0128     		cmp	r0, #1
 576 0052 06D1     		bne	.L51
 144:source\asw/mp3.c ****             || (nextEvent & ev_500ms) ||(nextEvent & ev_100ms)))         
 577              		.loc 1 144 0
 578 0054 40F2E113 		movw	r3, #481
 579 0058 1C42     		tst	r4, r3
 580 005a 02D0     		beq	.L51
 147:source\asw/mp3.c ****             }
 581              		.loc 1 147 0
 582 005c 2046     		mov	r0, r4
 583 005e FFF7FEFF 		bl	MP3__increaseVolume
 584              	.LVL39:
 585              	.L51:
 149:source\asw/mp3.c ****             && ((nextEvent & ev_Button2) || (nextEvent & ev_3000ms)||(nextEvent & ev_1000ms)
 586              		.loc 1 149 0
 587 0062 0120     		movs	r0, #1
 588 0064 FFF7FEFF 		bl	BUTTON_IsPressed
 589              	.LVL40:
 590 0068 0128     		cmp	r0, #1
 591 006a 06D1     		bne	.L52
 150:source\asw/mp3.c ****             || (nextEvent & ev_500ms) ||(nextEvent & ev_100ms)))         
 592              		.loc 1 150 0
 593 006c 14F4F17F 		tst	r4, #482
 594 0070 03D0     		beq	.L52
 153:source\asw/mp3.c ****             }
 595              		.loc 1 153 0
 596 0072 2046     		mov	r0, r4
 597 0074 FFF7FEFF 		bl	MP3__decreaseVolume
 598              	.LVL41:
 599 0078 36E0     		b	.L45
 600              	.L52:
 155:source\asw/mp3.c ****             {
ARM GAS  C:\Users\Reza\AppData\Local\Temp\ccjmivOS.s 			page 17


 601              		.loc 1 155 0
 602 007a 14F0080F 		tst	r4, #8
 603 007e 05D0     		beq	.L53
 157:source\asw/mp3.c ****                 MP3__player.m_state = MP3STATE_ISPAUSING;
 604              		.loc 1 157 0
 605 0080 FFF7FEFF 		bl	MP3__pauseSong
 606              	.LVL42:
 158:source\asw/mp3.c ****             }
 607              		.loc 1 158 0
 608 0084 0222     		movs	r2, #2
 609 0086 194B     		ldr	r3, .L58
 610 0088 1A70     		strb	r2, [r3]
 611 008a 2DE0     		b	.L45
 612              	.L53:
 160:source\asw/mp3.c ****             {
 613              		.loc 1 160 0
 614 008c 14F0100F 		tst	r4, #16
 615 0090 05D0     		beq	.L54
 162:source\asw/mp3.c ****                 MP3__player.m_state = MP3STATE_ISSTOPPED;
 616              		.loc 1 162 0
 617 0092 FFF7FEFF 		bl	MP3__stopSong
 618              	.LVL43:
 163:source\asw/mp3.c ****             }
 619              		.loc 1 163 0
 620 0096 0022     		movs	r2, #0
 621 0098 144B     		ldr	r3, .L58
 622 009a 1A70     		strb	r2, [r3]
 623 009c 24E0     		b	.L45
 624              	.L54:
 165:source\asw/mp3.c ****             {
 625              		.loc 1 165 0
 626 009e 14F00404 		ands	r4, r4, #4
 627              	.LVL44:
 628 00a2 05D0     		beq	.L55
 165:source\asw/mp3.c ****             {
 629              		.loc 1 165 0 is_stmt 0 discriminator 1
 630 00a4 FFF7FEFF 		bl	MP3__songEnded
 631              	.LVL45:
 632 00a8 10B9     		cbnz	r0, .L55
 167:source\asw/mp3.c ****             }
 633              		.loc 1 167 0 is_stmt 1
 634 00aa FFF7FEFF 		bl	MP3__showRemainingPlaytime
 635              	.LVL46:
 636 00ae 1BE0     		b	.L45
 637              	.L55:
 169:source\asw/mp3.c ****             {
 638              		.loc 1 169 0
 639 00b0 D4B1     		cbz	r4, .L45
 169:source\asw/mp3.c ****             {
 640              		.loc 1 169 0 is_stmt 0 discriminator 1
 641 00b2 FFF7FEFF 		bl	MP3__songEnded
 642              	.LVL47:
 643 00b6 B8B1     		cbz	r0, .L45
 171:source\asw/mp3.c ****                 MP3__playSong();
 644              		.loc 1 171 0 is_stmt 1
 645 00b8 FFF7FEFF 		bl	MP3__nextSong
 646              	.LVL48:
ARM GAS  C:\Users\Reza\AppData\Local\Temp\ccjmivOS.s 			page 18


 172:source\asw/mp3.c ****                 MP3__showSong();
 647              		.loc 1 172 0
 648 00bc FFF7FEFF 		bl	MP3__playSong
 649              	.LVL49:
 173:source\asw/mp3.c ****             }
 650              		.loc 1 173 0
 651 00c0 FFF7FEFF 		bl	MP3__showSong
 652              	.LVL50:
 653 00c4 10E0     		b	.L45
 654              	.LVL51:
 655              	.L48:
 178:source\asw/mp3.c ****             {
 656              		.loc 1 178 0
 657 00c6 10F0080F 		tst	r0, #8
 658 00ca 05D0     		beq	.L56
 180:source\asw/mp3.c ****                 MP3__player.m_state = MP3STATE_ISPLAYING;
 659              		.loc 1 180 0
 660 00cc FFF7FEFF 		bl	MP3__resumeSong
 661              	.LVL52:
 181:source\asw/mp3.c ****             }
 662              		.loc 1 181 0
 663 00d0 0122     		movs	r2, #1
 664 00d2 064B     		ldr	r3, .L58
 665 00d4 1A70     		strb	r2, [r3]
 666 00d6 07E0     		b	.L45
 667              	.LVL53:
 668              	.L56:
 183:source\asw/mp3.c ****             {
 669              		.loc 1 183 0
 670 00d8 10F0100F 		tst	r0, #16
 671 00dc 04D0     		beq	.L45
 185:source\asw/mp3.c ****                 MP3__player.m_state = MP3STATE_ISSTOPPED;
 672              		.loc 1 185 0
 673 00de FFF7FEFF 		bl	MP3__stopSong
 674              	.LVL54:
 186:source\asw/mp3.c ****             }
 675              		.loc 1 186 0
 676 00e2 0022     		movs	r2, #0
 677 00e4 014B     		ldr	r3, .L58
 678 00e6 1A70     		strb	r2, [r3]
 679              	.LVL55:
 680              	.L45:
 192:source\asw/mp3.c **** 
 681              		.loc 1 192 0
 682 00e8 0020     		movs	r0, #0
 683 00ea 10BD     		pop	{r4, pc}
 684              	.L59:
 685              		.align	2
 686              	.L58:
 687 00ec 00000000 		.word	.LANCHOR0
 688              		.cfi_endproc
 689              	.LFE115:
 690              		.size	MP3_ProcessEvent, .-MP3_ProcessEvent
 691              		.section	.text.MP3__showEventAndState,"ax",%progbits
 692              		.align	2
 693              		.global	MP3__showEventAndState
 694              		.thumb
ARM GAS  C:\Users\Reza\AppData\Local\Temp\ccjmivOS.s 			page 19


 695              		.thumb_func
 696              		.type	MP3__showEventAndState, %function
 697              	MP3__showEventAndState:
 698              	.LFB127:
 283:source\asw/mp3.c **** 
 284:source\asw/mp3.c **** void MP3__showEventAndState(EventMaskType ev, MP3__State_t state)
 285:source\asw/mp3.c **** {
 699              		.loc 1 285 0
 700              		.cfi_startproc
 701              		@ args = 0, pretend = 0, frame = 0
 702              		@ frame_needed = 0, uses_anonymous_args = 0
 703              	.LVL56:
 704 0000 38B5     		push	{r3, r4, r5, lr}
 705              		.cfi_def_cfa_offset 16
 706              		.cfi_offset 3, -16
 707              		.cfi_offset 4, -12
 708              		.cfi_offset 5, -8
 709              		.cfi_offset 14, -4
 286:source\asw/mp3.c ****     char* stateStr;
 287:source\asw/mp3.c ****     char* eventStr;
 288:source\asw/mp3.c ****     
 289:source\asw/mp3.c ****     //Create the event string
 290:source\asw/mp3.c ****     switch (ev)
 710              		.loc 1 290 0
 711 0002 0138     		subs	r0, r0, #1
 712              	.LVL57:
 713 0004 0F28     		cmp	r0, #15
 714 0006 11D8     		bhi	.L61
 715 0008 DFE800F0 		tbb	[pc, r0]
 716              	.L63:
 717 000c 12       		.byte	(.L71-.L63)/2
 718 000d 0A       		.byte	(.L64-.L63)/2
 719 000e 10       		.byte	(.L61-.L63)/2
 720 000f 08       		.byte	(.L65-.L63)/2
 721 0010 10       		.byte	(.L61-.L63)/2
 722 0011 10       		.byte	(.L61-.L63)/2
 723 0012 10       		.byte	(.L61-.L63)/2
 724 0013 0C       		.byte	(.L66-.L63)/2
 725 0014 10       		.byte	(.L61-.L63)/2
 726 0015 10       		.byte	(.L61-.L63)/2
 727 0016 10       		.byte	(.L61-.L63)/2
 728 0017 10       		.byte	(.L61-.L63)/2
 729 0018 10       		.byte	(.L61-.L63)/2
 730 0019 10       		.byte	(.L61-.L63)/2
 731 001a 10       		.byte	(.L61-.L63)/2
 732 001b 0E       		.byte	(.L67-.L63)/2
 733              		.p2align 1
 734              	.L65:
 291:source\asw/mp3.c ****     {
 292:source\asw/mp3.c ****         case ev_1s : eventStr = "ev_1s"; break;
 735              		.loc 1 292 0
 736 001c 114C     		ldr	r4, .L74
 737 001e 08E0     		b	.L62
 738              	.L64:
 739              	.LVL58:
 293:source\asw/mp3.c ****         case ev_Button1 : eventStr = "ev_Button1"; break;
 294:source\asw/mp3.c ****         case ev_Button2 : eventStr = "ev_Button2"; break;
ARM GAS  C:\Users\Reza\AppData\Local\Temp\ccjmivOS.s 			page 20


 740              		.loc 1 294 0
 741 0020 114C     		ldr	r4, .L74+4
 742 0022 06E0     		b	.L62
 743              	.LVL59:
 744              	.L66:
 295:source\asw/mp3.c ****         case ev_Button3 : eventStr = "ev_Button3"; break;
 745              		.loc 1 295 0
 746 0024 114C     		ldr	r4, .L74+8
 747 0026 04E0     		b	.L62
 748              	.LVL60:
 749              	.L67:
 296:source\asw/mp3.c ****         case ev_Button4 : eventStr = "ev_Button4"; break;
 750              		.loc 1 296 0
 751 0028 114C     		ldr	r4, .L74+12
 752 002a 02E0     		b	.L62
 753              	.LVL61:
 754              	.L61:
 297:source\asw/mp3.c ****         default: eventStr = "WRONG EVENT"; break;
 755              		.loc 1 297 0
 756 002c 114C     		ldr	r4, .L74+16
 757 002e 00E0     		b	.L62
 758              	.LVL62:
 759              	.L71:
 293:source\asw/mp3.c ****         case ev_Button2 : eventStr = "ev_Button2"; break;
 760              		.loc 1 293 0
 761 0030 114C     		ldr	r4, .L74+20
 762              	.L62:
 763              	.LVL63:
 298:source\asw/mp3.c ****     }
 299:source\asw/mp3.c ****     
 300:source\asw/mp3.c ****     //Create the state string
 301:source\asw/mp3.c ****     switch (state)
 764              		.loc 1 301 0
 765 0032 0129     		cmp	r1, #1
 766 0034 05D0     		beq	.L72
 767 0036 0229     		cmp	r1, #2
 768 0038 01D0     		beq	.L70
 302:source\asw/mp3.c ****     {
 303:source\asw/mp3.c ****         case MP3STATE_ISSTOPPED : stateStr = "IsStopped"; break; 
 769              		.loc 1 303 0
 770 003a 104D     		ldr	r5, .L74+24
 771 003c 02E0     		b	.L69
 772              	.L70:
 773              	.LVL64:
 304:source\asw/mp3.c ****         case MP3STATE_ISPLAYING : stateStr = "IsPlaying"; break;
 305:source\asw/mp3.c ****         case MP3STATE_ISPAUSING : stateStr = "IsPausing"; break;
 774              		.loc 1 305 0
 775 003e 104D     		ldr	r5, .L74+28
 776 0040 00E0     		b	.L69
 777              	.LVL65:
 778              	.L72:
 304:source\asw/mp3.c ****         case MP3STATE_ISPLAYING : stateStr = "IsPlaying"; break;
 779              		.loc 1 304 0
 780 0042 104D     		ldr	r5, .L74+32
 781              	.L69:
 782              	.LVL66:
 306:source\asw/mp3.c ****         default : stateStr = "IsStopped"; break;
ARM GAS  C:\Users\Reza\AppData\Local\Temp\ccjmivOS.s 			page 21


 307:source\asw/mp3.c ****     }
 308:source\asw/mp3.c ****     
 309:source\asw/mp3.c ****     //Print it via USB
 310:source\asw/mp3.c ****     UART_LOG_PutString("State: ");
 783              		.loc 1 310 0
 784 0044 1048     		ldr	r0, .L74+36
 785              	.LVL67:
 786 0046 FFF7FEFF 		bl	UART_LOG_PutString
 787              	.LVL68:
 311:source\asw/mp3.c ****     UART_LOG_PutString(stateStr);
 788              		.loc 1 311 0
 789 004a 2846     		mov	r0, r5
 790 004c FFF7FEFF 		bl	UART_LOG_PutString
 791              	.LVL69:
 312:source\asw/mp3.c ****     UART_LOG_PutString(" | Event: ");
 792              		.loc 1 312 0
 793 0050 0E48     		ldr	r0, .L74+40
 794 0052 FFF7FEFF 		bl	UART_LOG_PutString
 795              	.LVL70:
 313:source\asw/mp3.c ****     UART_LOG_PutString(eventStr);
 796              		.loc 1 313 0
 797 0056 2046     		mov	r0, r4
 798 0058 FFF7FEFF 		bl	UART_LOG_PutString
 799              	.LVL71:
 314:source\asw/mp3.c ****     UART_LOG_PutString("\n");
 800              		.loc 1 314 0
 801 005c 0C48     		ldr	r0, .L74+44
 802 005e FFF7FEFF 		bl	UART_LOG_PutString
 803              	.LVL72:
 804 0062 38BD     		pop	{r3, r4, r5, pc}
 805              	.LVL73:
 806              	.L75:
 807              		.align	2
 808              	.L74:
 809 0064 24000000 		.word	.LC4
 810 0068 38000000 		.word	.LC6
 811 006c 44000000 		.word	.LC7
 812 0070 50000000 		.word	.LC8
 813 0074 5C000000 		.word	.LC9
 814 0078 2C000000 		.word	.LC5
 815 007c 68000000 		.word	.LC10
 816 0080 80000000 		.word	.LC12
 817 0084 74000000 		.word	.LC11
 818 0088 8C000000 		.word	.LC13
 819 008c 94000000 		.word	.LC14
 820 0090 20000000 		.word	.LC3
 821              		.cfi_endproc
 822              	.LFE127:
 823              		.size	MP3__showEventAndState, .-MP3__showEventAndState
 824              		.section	.rodata.str1.4,"aMS",%progbits,1
 825              		.align	2
 826              	.LC0:
 827 0000 0A0A3D3D 		.ascii	"\012\012===================\012\000"
 827      3D3D3D3D 
 827      3D3D3D3D 
 827      3D3D3D3D 
 827      3D3D3D3D 
ARM GAS  C:\Users\Reza\AppData\Local\Temp\ccjmivOS.s 			page 22


 828 0017 00       		.space	1
 829              	.LC1:
 830 0018 282A2900 		.ascii	"(*)\000"
 831              	.LC2:
 832 001c 28202900 		.ascii	"( )\000"
 833              	.LC3:
 834 0020 0A00     		.ascii	"\012\000"
 835 0022 0000     		.space	2
 836              	.LC4:
 837 0024 65765F31 		.ascii	"ev_1s\000"
 837      7300
 838 002a 0000     		.space	2
 839              	.LC5:
 840 002c 65765F42 		.ascii	"ev_Button1\000"
 840      7574746F 
 840      6E3100
 841 0037 00       		.space	1
 842              	.LC6:
 843 0038 65765F42 		.ascii	"ev_Button2\000"
 843      7574746F 
 843      6E3200
 844 0043 00       		.space	1
 845              	.LC7:
 846 0044 65765F42 		.ascii	"ev_Button3\000"
 846      7574746F 
 846      6E3300
 847 004f 00       		.space	1
 848              	.LC8:
 849 0050 65765F42 		.ascii	"ev_Button4\000"
 849      7574746F 
 849      6E3400
 850 005b 00       		.space	1
 851              	.LC9:
 852 005c 57524F4E 		.ascii	"WRONG EVENT\000"
 852      47204556 
 852      454E5400 
 853              	.LC10:
 854 0068 49735374 		.ascii	"IsStopped\000"
 854      6F707065 
 854      6400
 855 0072 0000     		.space	2
 856              	.LC11:
 857 0074 4973506C 		.ascii	"IsPlaying\000"
 857      6179696E 
 857      6700
 858 007e 0000     		.space	2
 859              	.LC12:
 860 0080 49735061 		.ascii	"IsPausing\000"
 860      7573696E 
 860      6700
 861 008a 0000     		.space	2
 862              	.LC13:
 863 008c 53746174 		.ascii	"State: \000"
 863      653A2000 
 864              	.LC14:
 865 0094 207C2045 		.ascii	" | Event: \000"
 865      76656E74 
ARM GAS  C:\Users\Reza\AppData\Local\Temp\ccjmivOS.s 			page 23


 865      3A2000
 866              		.bss
 867              		.align	2
 868              		.set	.LANCHOR0,. + 0
 869              		.type	MP3__player, %object
 870              		.size	MP3__player, 10
 871              	MP3__player:
 872 0000 00000000 		.space	10
 872      00000000 
 872      0000
 873              		.text
 874              	.Letext0:
 875              		.file 2 "c:\\program files (x86)\\cypress\\psoc creator\\4.2\\psoc creator\\import\\gnu\\arm\\5.4.
 876              		.file 3 "c:\\program files (x86)\\cypress\\psoc creator\\4.2\\psoc creator\\import\\gnu\\arm\\5.4.
 877              		.file 4 "Generated_Source\\PSoC5/SimpleSystem_common_ee_types.inc"
 878              		.file 5 "Generated_Source\\PSoC5/SimpleSystem_cortex_mx_ee_cpu.inc"
 879              		.file 6 "Generated_Source\\PSoC5/SimpleSystem_ee_oo_common.inc"
 880              		.file 7 ".\\source\\bsw/global.h"
 881              		.file 8 "source\\asw\\sound_data.h"
 882              		.file 9 ".\\source\\bsw/button.h"
 883              		.file 10 "Generated_Source\\PSoC5/SimpleSystem_ee_oo_intfunc.inc"
 884              		.file 11 "Generated_Source\\PSoC5/SimpleSystem_cortex_mx_ee_context.inc"
 885              		.file 12 "Generated_Source\\PSoC5/SimpleSystem_common_ee_primitives.inc"
 886              		.file 13 "Generated_Source\\PSoC5/cmsis_gcc.h"
 887              		.file 14 "Generated_Source\\PSoC5/core_cm3.h"
 888              		.file 15 "source\\asw\\Smart_Volume.h"
 889              		.file 16 ".\\source\\bsw/seven.h"
 890              		.file 17 "source\\asw\\sound.h"
 891              		.file 18 "Generated_Source\\PSoC5/UART_LOG.h"