ARM GAS  C:\Users\Reza\AppData\Local\Temp\cctB4AOj.s 			page 1


   1              		.syntax unified
   2              		.cpu cortex-m3
   3              		.fpu softvfp
   4              		.eabi_attribute 20, 1
   5              		.eabi_attribute 21, 1
   6              		.eabi_attribute 23, 3
   7              		.eabi_attribute 24, 1
   8              		.eabi_attribute 25, 1
   9              		.eabi_attribute 26, 1
  10              		.eabi_attribute 30, 1
  11              		.eabi_attribute 34, 1
  12              		.eabi_attribute 18, 4
  13              		.thumb
  14              		.syntax unified
  15              		.file	"Smart_Volume.c"
  16              		.text
  17              	.Ltext0:
  18              		.cfi_sections	.debug_frame
  19              		.section	.text.MP3__increaseSmartVolume,"ax",%progbits
  20              		.align	2
  21              		.global	MP3__increaseSmartVolume
  22              		.thumb
  23              		.thumb_func
  24              		.type	MP3__increaseSmartVolume, %function
  25              	MP3__increaseSmartVolume:
  26              	.LFB114:
  27              		.file 1 "source\\asw\\Smart_Volume.c"
   1:source\asw/Smart_Volume.c **** /**
   2:source\asw/Smart_Volume.c **** * \file Smart_Volume.c
   3:source\asw/Smart_Volume.c **** * \author Sayeed Reza Alawi
   4:source\asw/Smart_Volume.c **** * \date 
   5:source\asw/Smart_Volume.c **** *
   6:source\asw/Smart_Volume.c **** * \brief Sound driver
   7:source\asw/Smart_Volume.c **** *
   8:source\asw/Smart_Volume.c **** * \copyright Copyright ©2016
   9:source\asw/Smart_Volume.c **** * Department of electrical engineering and information technology, Hochschule Darmstadt - Universit
  10:source\asw/Smart_Volume.c **** * Permission to use, copy, modify, and distribute this software and its documentation for education
  11:source\asw/Smart_Volume.c **** * (unless permitted by h_da) and official h_da projects, is hereby granted for enrolled students of
  12:source\asw/Smart_Volume.c **** * this paragraph and the following paragraph appear in all copies, modifications, and distributions
  13:source\asw/Smart_Volume.c **** * Contact Prof.Dr.-Ing. Peter Fromm, peter.fromm@h-da.de, Birkenweg 8 64295 Darmstadt - GERMANY for
  14:source\asw/Smart_Volume.c **** *
  15:source\asw/Smart_Volume.c **** * \warning This software is a PROTOTYPE version and is not designed or intended for use in producti
  16:source\asw/Smart_Volume.c **** * The user represents and warrants that it will NOT use or redistribute the Software for such purpo
  17:source\asw/Smart_Volume.c **** * This prototype is for research purposes only. This software is provided "AS IS," without a warran
  18:source\asw/Smart_Volume.c **** */
  19:source\asw/Smart_Volume.c **** 
  20:source\asw/Smart_Volume.c **** /*****************************************************************************/
  21:source\asw/Smart_Volume.c **** /* Include files                                                             */
  22:source\asw/Smart_Volume.c **** /*****************************************************************************/
  23:source\asw/Smart_Volume.c **** #include "Smart_Volume.h"
  24:source\asw/Smart_Volume.c **** #include "project.h"
  25:source\asw/Smart_Volume.c **** 
  26:source\asw/Smart_Volume.c **** /*****************************************************************************/
  27:source\asw/Smart_Volume.c **** /* Local pre-processor symbols/macros ('#define')                            */
  28:source\asw/Smart_Volume.c **** /*****************************************************************************/
  29:source\asw/Smart_Volume.c **** 
  30:source\asw/Smart_Volume.c **** /*****************************************************************************/
ARM GAS  C:\Users\Reza\AppData\Local\Temp\cctB4AOj.s 			page 2


  31:source\asw/Smart_Volume.c **** /* Global variable definitions (declared in header file with 'extern')       */
  32:source\asw/Smart_Volume.c **** /*****************************************************************************/
  33:source\asw/Smart_Volume.c **** 
  34:source\asw/Smart_Volume.c **** /*****************************************************************************/
  35:source\asw/Smart_Volume.c **** /* Local type definitions ('typedef')                                        */
  36:source\asw/Smart_Volume.c **** /*****************************************************************************/
  37:source\asw/Smart_Volume.c **** 
  38:source\asw/Smart_Volume.c **** /*****************************************************************************/
  39:source\asw/Smart_Volume.c **** /* Local variable definitions ('static')                                     */
  40:source\asw/Smart_Volume.c **** /*****************************************************************************/
  41:source\asw/Smart_Volume.c **** static uint8_t m_volume=0;
  42:source\asw/Smart_Volume.c **** 
  43:source\asw/Smart_Volume.c **** 
  44:source\asw/Smart_Volume.c **** /*****************************************************************************/
  45:source\asw/Smart_Volume.c **** /* Local function prototypes ('static')                                      */
  46:source\asw/Smart_Volume.c **** /*****************************************************************************/
  47:source\asw/Smart_Volume.c **** 
  48:source\asw/Smart_Volume.c **** 
  49:source\asw/Smart_Volume.c **** /*****************************************************************************/
  50:source\asw/Smart_Volume.c **** /* Function implementation - global ('extern') and local ('static')          */
  51:source\asw/Smart_Volume.c **** /*****************************************************************************/
  52:source\asw/Smart_Volume.c **** 
  53:source\asw/Smart_Volume.c **** /**
  54:source\asw/Smart_Volume.c ****  * increasing the volume based on different events.
  55:source\asw/Smart_Volume.c ****  * /return volume value.
  56:source\asw/Smart_Volume.c ****  */
  57:source\asw/Smart_Volume.c **** uint8_t MP3__increaseSmartVolume(EventMaskType nextEvent)
  58:source\asw/Smart_Volume.c **** {
  28              		.loc 1 58 0
  29              		.cfi_startproc
  30              		@ args = 0, pretend = 0, frame = 0
  31              		@ frame_needed = 0, uses_anonymous_args = 0
  32              	.LVL0:
  33 0000 08B5     		push	{r3, lr}
  34              		.cfi_def_cfa_offset 8
  35              		.cfi_offset 3, -8
  36              		.cfi_offset 14, -4
  59:source\asw/Smart_Volume.c ****     static VOLUME__IncreamentState_t increament_volume_state= VOLUME__NormalIncreament;
  60:source\asw/Smart_Volume.c ****     if((nextEvent & ev_3000ms))
  37              		.loc 1 60 0
  38 0002 10F4807F 		tst	r0, #256
  39 0006 2AD0     		beq	.L2
  61:source\asw/Smart_Volume.c ****     {
  62:source\asw/Smart_Volume.c ****         SetRelAlarm(alrm_3000ms,3000,3000);
  40              		.loc 1 62 0
  41 0008 40F6B832 		movw	r2, #3000
  42 000c 1146     		mov	r1, r2
  43 000e 0320     		movs	r0, #3
  44              	.LVL1:
  45 0010 FFF7FEFF 		bl	EE_oo_SetRelAlarm
  46              	.LVL2:
  63:source\asw/Smart_Volume.c ****         if(increament_volume_state == VOLUME__NormalIncreament)
  47              		.loc 1 63 0
  48 0014 404B     		ldr	r3, .L14
  49 0016 1B78     		ldrb	r3, [r3]	@ zero_extendqisi2
  50 0018 4BB9     		cbnz	r3, .L3
  64:source\asw/Smart_Volume.c ****         {
ARM GAS  C:\Users\Reza\AppData\Local\Temp\cctB4AOj.s 			page 3


  65:source\asw/Smart_Volume.c ****             SetRelAlarm(alrm_500ms,500,500);
  51              		.loc 1 65 0
  52 001a 4FF4FA72 		mov	r2, #500
  53 001e 1146     		mov	r1, r2
  54 0020 0020     		movs	r0, #0
  55 0022 FFF7FEFF 		bl	EE_oo_SetRelAlarm
  56              	.LVL3:
  66:source\asw/Smart_Volume.c ****             increament_volume_state= VOLUME__FastIncreament; 
  57              		.loc 1 66 0
  58 0026 0122     		movs	r2, #1
  59 0028 3B4B     		ldr	r3, .L14
  60 002a 1A70     		strb	r2, [r3]
  61 002c 09E0     		b	.L4
  62              	.L3:
  67:source\asw/Smart_Volume.c ****         }
  68:source\asw/Smart_Volume.c ****         
  69:source\asw/Smart_Volume.c ****         else if(increament_volume_state == VOLUME__FastIncreament)
  63              		.loc 1 69 0
  64 002e 012B     		cmp	r3, #1
  65 0030 07D1     		bne	.L4
  70:source\asw/Smart_Volume.c ****         {
  71:source\asw/Smart_Volume.c ****             SetRelAlarm(alrm_100ms,100,100);
  66              		.loc 1 71 0
  67 0032 6422     		movs	r2, #100
  68 0034 1146     		mov	r1, r2
  69 0036 0120     		movs	r0, #1
  70 0038 FFF7FEFF 		bl	EE_oo_SetRelAlarm
  71              	.LVL4:
  72:source\asw/Smart_Volume.c ****             increament_volume_state= VOLUME__VeryFastIncreament; 
  72              		.loc 1 72 0
  73 003c 0222     		movs	r2, #2
  74 003e 364B     		ldr	r3, .L14
  75 0040 1A70     		strb	r2, [r3]
  76              	.L4:
  73:source\asw/Smart_Volume.c ****         }
  74:source\asw/Smart_Volume.c ****         if (m_volume < MP3__MAXVOLUME) 
  77              		.loc 1 74 0
  78 0042 354B     		ldr	r3, .L14
  79 0044 5B78     		ldrb	r3, [r3, #1]	@ zero_extendqisi2
  80 0046 622B     		cmp	r3, #98
  81 0048 03D8     		bhi	.L5
  75:source\asw/Smart_Volume.c ****         {
  76:source\asw/Smart_Volume.c ****         m_volume++;
  82              		.loc 1 76 0
  83 004a 0133     		adds	r3, r3, #1
  84 004c 324A     		ldr	r2, .L14
  85 004e 5370     		strb	r3, [r2, #1]
  86 0050 5FE0     		b	.L6
  87              	.L5:
  77:source\asw/Smart_Volume.c ****         }
  78:source\asw/Smart_Volume.c ****         else if (m_volume == MP3__MAXVOLUME)
  88              		.loc 1 78 0
  89 0052 632B     		cmp	r3, #99
  90 0054 5DD1     		bne	.L6
  79:source\asw/Smart_Volume.c ****         {
  80:source\asw/Smart_Volume.c ****             increament_volume_state = VOLUME__NormalIncreament;  
  91              		.loc 1 80 0
ARM GAS  C:\Users\Reza\AppData\Local\Temp\cctB4AOj.s 			page 4


  92 0056 0022     		movs	r2, #0
  93 0058 2F4B     		ldr	r3, .L14
  94 005a 1A70     		strb	r2, [r3]
  95 005c 59E0     		b	.L6
  96              	.LVL5:
  97              	.L2:
  81:source\asw/Smart_Volume.c ****         }        
  82:source\asw/Smart_Volume.c ****     }
  83:source\asw/Smart_Volume.c ****     else if((increament_volume_state == VOLUME__FastIncreament) && (nextEvent &  ev_500ms))
  98              		.loc 1 83 0
  99 005e 2E4B     		ldr	r3, .L14
 100 0060 1B78     		ldrb	r3, [r3]	@ zero_extendqisi2
 101 0062 012B     		cmp	r3, #1
 102 0064 10D1     		bne	.L7
 103              		.loc 1 83 0 is_stmt 0 discriminator 1
 104 0066 10F0200F 		tst	r0, #32
 105 006a 0DD0     		beq	.L7
  84:source\asw/Smart_Volume.c ****     {
  85:source\asw/Smart_Volume.c ****         if (m_volume < MP3__MAXVOLUME)
 106              		.loc 1 85 0 is_stmt 1
 107 006c 2A4B     		ldr	r3, .L14
 108 006e 5B78     		ldrb	r3, [r3, #1]	@ zero_extendqisi2
 109 0070 622B     		cmp	r3, #98
 110 0072 03D8     		bhi	.L8
  86:source\asw/Smart_Volume.c ****         {
  87:source\asw/Smart_Volume.c ****         m_volume++;
 111              		.loc 1 87 0
 112 0074 0133     		adds	r3, r3, #1
 113 0076 284A     		ldr	r2, .L14
 114 0078 5370     		strb	r3, [r2, #1]
 115 007a 4AE0     		b	.L6
 116              	.L8:
  88:source\asw/Smart_Volume.c ****         }
  89:source\asw/Smart_Volume.c ****         else if (m_volume == MP3__MAXVOLUME)
 117              		.loc 1 89 0
 118 007c 632B     		cmp	r3, #99
 119 007e 48D1     		bne	.L6
  90:source\asw/Smart_Volume.c ****         {
  91:source\asw/Smart_Volume.c ****             increament_volume_state = VOLUME__NormalIncreament;  
 120              		.loc 1 91 0
 121 0080 0022     		movs	r2, #0
 122 0082 254B     		ldr	r3, .L14
 123 0084 1A70     		strb	r2, [r3]
 124 0086 44E0     		b	.L6
 125              	.L7:
  92:source\asw/Smart_Volume.c ****         }
  93:source\asw/Smart_Volume.c ****     }
  94:source\asw/Smart_Volume.c ****     else if((increament_volume_state == VOLUME__VeryFastIncreament) &&  (nextEvent & ev_100ms))
 126              		.loc 1 94 0
 127 0088 022B     		cmp	r3, #2
 128 008a 10D1     		bne	.L9
 129              		.loc 1 94 0 is_stmt 0 discriminator 1
 130 008c 10F0400F 		tst	r0, #64
 131 0090 0DD0     		beq	.L9
  95:source\asw/Smart_Volume.c ****     {
  96:source\asw/Smart_Volume.c ****         if (m_volume < MP3__MAXVOLUME)
 132              		.loc 1 96 0 is_stmt 1
ARM GAS  C:\Users\Reza\AppData\Local\Temp\cctB4AOj.s 			page 5


 133 0092 214B     		ldr	r3, .L14
 134 0094 5B78     		ldrb	r3, [r3, #1]	@ zero_extendqisi2
 135 0096 622B     		cmp	r3, #98
 136 0098 03D8     		bhi	.L10
  97:source\asw/Smart_Volume.c ****         {
  98:source\asw/Smart_Volume.c ****         m_volume++;
 137              		.loc 1 98 0
 138 009a 0133     		adds	r3, r3, #1
 139 009c 1E4A     		ldr	r2, .L14
 140 009e 5370     		strb	r3, [r2, #1]
 141 00a0 37E0     		b	.L6
 142              	.L10:
  99:source\asw/Smart_Volume.c ****         }
 100:source\asw/Smart_Volume.c ****         else if (m_volume == MP3__MAXVOLUME)
 143              		.loc 1 100 0
 144 00a2 632B     		cmp	r3, #99
 145 00a4 35D1     		bne	.L6
 101:source\asw/Smart_Volume.c ****         {
 102:source\asw/Smart_Volume.c ****             increament_volume_state = VOLUME__NormalIncreament;  
 146              		.loc 1 102 0
 147 00a6 0022     		movs	r2, #0
 148 00a8 1B4B     		ldr	r3, .L14
 149 00aa 1A70     		strb	r2, [r3]
 150 00ac 31E0     		b	.L6
 151              	.L9:
 103:source\asw/Smart_Volume.c ****         }
 104:source\asw/Smart_Volume.c ****     }
 105:source\asw/Smart_Volume.c ****      else if(nextEvent &  ev_1000ms)
 152              		.loc 1 105 0
 153 00ae 10F0800F 		tst	r0, #128
 154 00b2 19D0     		beq	.L11
 106:source\asw/Smart_Volume.c ****     {
 107:source\asw/Smart_Volume.c ****         SetRelAlarm(alrm_1000ms,1000,1000);
 155              		.loc 1 107 0
 156 00b4 4FF47A72 		mov	r2, #1000
 157 00b8 1146     		mov	r1, r2
 158 00ba 0220     		movs	r0, #2
 159              	.LVL6:
 160 00bc FFF7FEFF 		bl	EE_oo_SetRelAlarm
 161              	.LVL7:
 108:source\asw/Smart_Volume.c ****         SetRelAlarm(alrm_3000ms,3000,0);
 162              		.loc 1 108 0
 163 00c0 0022     		movs	r2, #0
 164 00c2 40F6B831 		movw	r1, #3000
 165 00c6 0320     		movs	r0, #3
 166 00c8 FFF7FEFF 		bl	EE_oo_SetRelAlarm
 167              	.LVL8:
 109:source\asw/Smart_Volume.c ****         if (m_volume < MP3__MAXVOLUME)
 168              		.loc 1 109 0
 169 00cc 124B     		ldr	r3, .L14
 170 00ce 5B78     		ldrb	r3, [r3, #1]	@ zero_extendqisi2
 171 00d0 622B     		cmp	r3, #98
 172 00d2 03D8     		bhi	.L12
 110:source\asw/Smart_Volume.c ****         {
 111:source\asw/Smart_Volume.c ****         m_volume++;
 173              		.loc 1 111 0
 174 00d4 0133     		adds	r3, r3, #1
ARM GAS  C:\Users\Reza\AppData\Local\Temp\cctB4AOj.s 			page 6


 175 00d6 104A     		ldr	r2, .L14
 176 00d8 5370     		strb	r3, [r2, #1]
 177 00da 1AE0     		b	.L6
 178              	.L12:
 112:source\asw/Smart_Volume.c ****         }
 113:source\asw/Smart_Volume.c ****         else if (m_volume == MP3__MAXVOLUME)
 179              		.loc 1 113 0
 180 00dc 632B     		cmp	r3, #99
 181 00de 18D1     		bne	.L6
 114:source\asw/Smart_Volume.c ****         {
 115:source\asw/Smart_Volume.c ****             increament_volume_state = VOLUME__NormalIncreament;  
 182              		.loc 1 115 0
 183 00e0 0022     		movs	r2, #0
 184 00e2 0D4B     		ldr	r3, .L14
 185 00e4 1A70     		strb	r2, [r3]
 186 00e6 14E0     		b	.L6
 187              	.LVL9:
 188              	.L11:
 116:source\asw/Smart_Volume.c ****         }
 117:source\asw/Smart_Volume.c ****     }
 118:source\asw/Smart_Volume.c ****     else if(nextEvent &  ev_Button1)
 189              		.loc 1 118 0
 190 00e8 10F0010F 		tst	r0, #1
 191 00ec 11D0     		beq	.L6
 119:source\asw/Smart_Volume.c ****     {
 120:source\asw/Smart_Volume.c ****         increament_volume_state = VOLUME__NormalIncreament;
 192              		.loc 1 120 0
 193 00ee 0A4B     		ldr	r3, .L14
 194 00f0 0022     		movs	r2, #0
 195 00f2 1A70     		strb	r2, [r3]
 121:source\asw/Smart_Volume.c ****         if (m_volume < MP3__MAXVOLUME)
 196              		.loc 1 121 0
 197 00f4 5B78     		ldrb	r3, [r3, #1]	@ zero_extendqisi2
 198 00f6 622B     		cmp	r3, #98
 199 00f8 0BD8     		bhi	.L6
 122:source\asw/Smart_Volume.c ****         {
 123:source\asw/Smart_Volume.c ****         m_volume++;
 200              		.loc 1 123 0
 201 00fa 0133     		adds	r3, r3, #1
 202 00fc 064A     		ldr	r2, .L14
 203 00fe 5370     		strb	r3, [r2, #1]
 124:source\asw/Smart_Volume.c ****         CancelAlarm(alrm_1000ms);
 204              		.loc 1 124 0
 205 0100 0220     		movs	r0, #2
 206              	.LVL10:
 207 0102 FFF7FEFF 		bl	EE_oo_CancelAlarm
 208              	.LVL11:
 125:source\asw/Smart_Volume.c ****         SetRelAlarm(alrm_1000ms,1000,0);
 209              		.loc 1 125 0
 210 0106 0022     		movs	r2, #0
 211 0108 4FF47A71 		mov	r1, #1000
 212 010c 0220     		movs	r0, #2
 213 010e FFF7FEFF 		bl	EE_oo_SetRelAlarm
 214              	.LVL12:
 215              	.L6:
 126:source\asw/Smart_Volume.c ****         }
 127:source\asw/Smart_Volume.c ****         else if (m_volume == MP3__MAXVOLUME)
ARM GAS  C:\Users\Reza\AppData\Local\Temp\cctB4AOj.s 			page 7


 128:source\asw/Smart_Volume.c ****         {
 129:source\asw/Smart_Volume.c ****             increament_volume_state = VOLUME__NormalIncreament;  
 130:source\asw/Smart_Volume.c ****         }
 131:source\asw/Smart_Volume.c ****     }
 132:source\asw/Smart_Volume.c ****     return m_volume;
 133:source\asw/Smart_Volume.c **** }
 216              		.loc 1 133 0
 217 0112 014B     		ldr	r3, .L14
 218 0114 5878     		ldrb	r0, [r3, #1]	@ zero_extendqisi2
 219 0116 08BD     		pop	{r3, pc}
 220              	.L15:
 221              		.align	2
 222              	.L14:
 223 0118 00000000 		.word	.LANCHOR0
 224              		.cfi_endproc
 225              	.LFE114:
 226              		.size	MP3__increaseSmartVolume, .-MP3__increaseSmartVolume
 227              		.section	.text.MP3__decreaseSmartVolume,"ax",%progbits
 228              		.align	2
 229              		.global	MP3__decreaseSmartVolume
 230              		.thumb
 231              		.thumb_func
 232              		.type	MP3__decreaseSmartVolume, %function
 233              	MP3__decreaseSmartVolume:
 234              	.LFB115:
 134:source\asw/Smart_Volume.c **** 
 135:source\asw/Smart_Volume.c **** /**
 136:source\asw/Smart_Volume.c ****  * decreasing the volume based on different events.
 137:source\asw/Smart_Volume.c ****  * /return volume value
 138:source\asw/Smart_Volume.c ****  */
 139:source\asw/Smart_Volume.c **** uint8_t MP3__decreaseSmartVolume(EventMaskType nextEvent)
 140:source\asw/Smart_Volume.c **** {
 235              		.loc 1 140 0
 236              		.cfi_startproc
 237              		@ args = 0, pretend = 0, frame = 0
 238              		@ frame_needed = 0, uses_anonymous_args = 0
 239              	.LVL13:
 240 0000 08B5     		push	{r3, lr}
 241              		.cfi_def_cfa_offset 8
 242              		.cfi_offset 3, -8
 243              		.cfi_offset 14, -4
 141:source\asw/Smart_Volume.c ****     static VOLUME__DecreamentState_t decreament_volume_state= VOLUME__NormalDecreament;
 142:source\asw/Smart_Volume.c ****     if((nextEvent & ev_3000ms))
 244              		.loc 1 142 0
 245 0002 10F4807F 		tst	r0, #256
 246 0006 29D0     		beq	.L17
 143:source\asw/Smart_Volume.c ****     {
 144:source\asw/Smart_Volume.c ****         SetRelAlarm(alrm_3000ms,3000,3000);
 247              		.loc 1 144 0
 248 0008 40F6B832 		movw	r2, #3000
 249 000c 1146     		mov	r1, r2
 250 000e 0320     		movs	r0, #3
 251              	.LVL14:
 252 0010 FFF7FEFF 		bl	EE_oo_SetRelAlarm
 253              	.LVL15:
 145:source\asw/Smart_Volume.c ****         if(decreament_volume_state == VOLUME__NormalDecreament)
 254              		.loc 1 145 0
ARM GAS  C:\Users\Reza\AppData\Local\Temp\cctB4AOj.s 			page 8


 255 0014 3D4B     		ldr	r3, .L29
 256 0016 9B78     		ldrb	r3, [r3, #2]	@ zero_extendqisi2
 257 0018 4BB9     		cbnz	r3, .L18
 146:source\asw/Smart_Volume.c ****         {
 147:source\asw/Smart_Volume.c ****             SetRelAlarm(alrm_500ms,500,500);
 258              		.loc 1 147 0
 259 001a 4FF4FA72 		mov	r2, #500
 260 001e 1146     		mov	r1, r2
 261 0020 0020     		movs	r0, #0
 262 0022 FFF7FEFF 		bl	EE_oo_SetRelAlarm
 263              	.LVL16:
 148:source\asw/Smart_Volume.c ****             decreament_volume_state= VOLUME__FastDecreament; 
 264              		.loc 1 148 0
 265 0026 0122     		movs	r2, #1
 266 0028 384B     		ldr	r3, .L29
 267 002a 9A70     		strb	r2, [r3, #2]
 268 002c 09E0     		b	.L19
 269              	.L18:
 149:source\asw/Smart_Volume.c ****         }
 150:source\asw/Smart_Volume.c ****         
 151:source\asw/Smart_Volume.c ****         else if(decreament_volume_state == VOLUME__FastDecreament)
 270              		.loc 1 151 0
 271 002e 012B     		cmp	r3, #1
 272 0030 07D1     		bne	.L19
 152:source\asw/Smart_Volume.c ****         {
 153:source\asw/Smart_Volume.c ****             SetRelAlarm(alrm_100ms,100,100);
 273              		.loc 1 153 0
 274 0032 6422     		movs	r2, #100
 275 0034 1146     		mov	r1, r2
 276 0036 0120     		movs	r0, #1
 277 0038 FFF7FEFF 		bl	EE_oo_SetRelAlarm
 278              	.LVL17:
 154:source\asw/Smart_Volume.c ****             decreament_volume_state= VOLUME__VeryFastDecreament; 
 279              		.loc 1 154 0
 280 003c 0222     		movs	r2, #2
 281 003e 334B     		ldr	r3, .L29
 282 0040 9A70     		strb	r2, [r3, #2]
 283              	.L19:
 155:source\asw/Smart_Volume.c ****         }
 156:source\asw/Smart_Volume.c ****         if (m_volume > 0) 
 284              		.loc 1 156 0
 285 0042 324B     		ldr	r3, .L29
 286 0044 5B78     		ldrb	r3, [r3, #1]	@ zero_extendqisi2
 287 0046 1BB1     		cbz	r3, .L20
 157:source\asw/Smart_Volume.c ****         {
 158:source\asw/Smart_Volume.c ****         m_volume--;
 288              		.loc 1 158 0
 289 0048 013B     		subs	r3, r3, #1
 290 004a 304A     		ldr	r2, .L29
 291 004c 5370     		strb	r3, [r2, #1]
 292 004e 59E0     		b	.L21
 293              	.L20:
 159:source\asw/Smart_Volume.c ****         }
 160:source\asw/Smart_Volume.c ****         else if (m_volume == 0)
 294              		.loc 1 160 0
 295 0050 002B     		cmp	r3, #0
 296 0052 57D1     		bne	.L21
ARM GAS  C:\Users\Reza\AppData\Local\Temp\cctB4AOj.s 			page 9


 161:source\asw/Smart_Volume.c ****         {
 162:source\asw/Smart_Volume.c ****             decreament_volume_state = VOLUME__NormalDecreament;  
 297              		.loc 1 162 0
 298 0054 0022     		movs	r2, #0
 299 0056 2D4B     		ldr	r3, .L29
 300 0058 9A70     		strb	r2, [r3, #2]
 301 005a 53E0     		b	.L21
 302              	.LVL18:
 303              	.L17:
 163:source\asw/Smart_Volume.c ****         }        
 164:source\asw/Smart_Volume.c ****     }
 165:source\asw/Smart_Volume.c ****     else if((decreament_volume_state == VOLUME__FastDecreament) && (nextEvent &  ev_500ms))
 304              		.loc 1 165 0
 305 005c 2B4B     		ldr	r3, .L29
 306 005e 9B78     		ldrb	r3, [r3, #2]	@ zero_extendqisi2
 307 0060 012B     		cmp	r3, #1
 308 0062 0FD1     		bne	.L22
 309              		.loc 1 165 0 is_stmt 0 discriminator 1
 310 0064 10F0200F 		tst	r0, #32
 311 0068 0CD0     		beq	.L22
 166:source\asw/Smart_Volume.c ****     {
 167:source\asw/Smart_Volume.c ****         if (m_volume > 0)
 312              		.loc 1 167 0 is_stmt 1
 313 006a 284B     		ldr	r3, .L29
 314 006c 5B78     		ldrb	r3, [r3, #1]	@ zero_extendqisi2
 315 006e 1BB1     		cbz	r3, .L23
 168:source\asw/Smart_Volume.c ****         {
 169:source\asw/Smart_Volume.c ****         m_volume--;
 316              		.loc 1 169 0
 317 0070 013B     		subs	r3, r3, #1
 318 0072 264A     		ldr	r2, .L29
 319 0074 5370     		strb	r3, [r2, #1]
 320 0076 45E0     		b	.L21
 321              	.L23:
 170:source\asw/Smart_Volume.c ****         }
 171:source\asw/Smart_Volume.c ****         else if (m_volume == 0)
 322              		.loc 1 171 0
 323 0078 002B     		cmp	r3, #0
 324 007a 43D1     		bne	.L21
 172:source\asw/Smart_Volume.c ****         {
 173:source\asw/Smart_Volume.c ****             decreament_volume_state = VOLUME__NormalDecreament; 
 325              		.loc 1 173 0
 326 007c 0022     		movs	r2, #0
 327 007e 234B     		ldr	r3, .L29
 328 0080 9A70     		strb	r2, [r3, #2]
 329 0082 3FE0     		b	.L21
 330              	.L22:
 174:source\asw/Smart_Volume.c ****         }
 175:source\asw/Smart_Volume.c ****     }
 176:source\asw/Smart_Volume.c ****     else if((decreament_volume_state == VOLUME__VeryFastDecreament) &&  (nextEvent & ev_100ms))
 331              		.loc 1 176 0
 332 0084 022B     		cmp	r3, #2
 333 0086 0ED1     		bne	.L24
 334              		.loc 1 176 0 is_stmt 0 discriminator 1
 335 0088 10F0400F 		tst	r0, #64
 336 008c 0BD0     		beq	.L24
 177:source\asw/Smart_Volume.c ****     {
ARM GAS  C:\Users\Reza\AppData\Local\Temp\cctB4AOj.s 			page 10


 178:source\asw/Smart_Volume.c ****         if (m_volume > 0)
 337              		.loc 1 178 0 is_stmt 1
 338 008e 1F4B     		ldr	r3, .L29
 339 0090 5B78     		ldrb	r3, [r3, #1]	@ zero_extendqisi2
 340 0092 1BB1     		cbz	r3, .L25
 179:source\asw/Smart_Volume.c ****         {
 180:source\asw/Smart_Volume.c ****         m_volume--;
 341              		.loc 1 180 0
 342 0094 013B     		subs	r3, r3, #1
 343 0096 1D4A     		ldr	r2, .L29
 344 0098 5370     		strb	r3, [r2, #1]
 345 009a 33E0     		b	.L21
 346              	.L25:
 181:source\asw/Smart_Volume.c ****         }
 182:source\asw/Smart_Volume.c ****         else if (m_volume == 0)
 347              		.loc 1 182 0
 348 009c 93BB     		cbnz	r3, .L21
 183:source\asw/Smart_Volume.c ****         {
 184:source\asw/Smart_Volume.c ****             decreament_volume_state = VOLUME__NormalDecreament; 
 349              		.loc 1 184 0
 350 009e 0022     		movs	r2, #0
 351 00a0 1A4B     		ldr	r3, .L29
 352 00a2 9A70     		strb	r2, [r3, #2]
 353 00a4 2EE0     		b	.L21
 354              	.L24:
 185:source\asw/Smart_Volume.c ****         }
 186:source\asw/Smart_Volume.c ****     }
 187:source\asw/Smart_Volume.c ****      else if(nextEvent &  ev_1000ms)
 355              		.loc 1 187 0
 356 00a6 10F0800F 		tst	r0, #128
 357 00aa 17D0     		beq	.L26
 188:source\asw/Smart_Volume.c ****     {
 189:source\asw/Smart_Volume.c ****         SetRelAlarm(alrm_1000ms,1000,1000);
 358              		.loc 1 189 0
 359 00ac 4FF47A72 		mov	r2, #1000
 360 00b0 1146     		mov	r1, r2
 361 00b2 0220     		movs	r0, #2
 362              	.LVL19:
 363 00b4 FFF7FEFF 		bl	EE_oo_SetRelAlarm
 364              	.LVL20:
 190:source\asw/Smart_Volume.c ****         SetRelAlarm(alrm_3000ms,3000,0);
 365              		.loc 1 190 0
 366 00b8 0022     		movs	r2, #0
 367 00ba 40F6B831 		movw	r1, #3000
 368 00be 0320     		movs	r0, #3
 369 00c0 FFF7FEFF 		bl	EE_oo_SetRelAlarm
 370              	.LVL21:
 191:source\asw/Smart_Volume.c ****         if (m_volume > 0)
 371              		.loc 1 191 0
 372 00c4 114B     		ldr	r3, .L29
 373 00c6 5B78     		ldrb	r3, [r3, #1]	@ zero_extendqisi2
 374 00c8 1BB1     		cbz	r3, .L27
 192:source\asw/Smart_Volume.c ****         {
 193:source\asw/Smart_Volume.c ****         m_volume--;
 375              		.loc 1 193 0
 376 00ca 013B     		subs	r3, r3, #1
 377 00cc 0F4A     		ldr	r2, .L29
ARM GAS  C:\Users\Reza\AppData\Local\Temp\cctB4AOj.s 			page 11


 378 00ce 5370     		strb	r3, [r2, #1]
 379 00d0 18E0     		b	.L21
 380              	.L27:
 194:source\asw/Smart_Volume.c ****         }
 195:source\asw/Smart_Volume.c ****         else if (m_volume == 0)
 381              		.loc 1 195 0
 382 00d2 BBB9     		cbnz	r3, .L21
 196:source\asw/Smart_Volume.c ****         {
 197:source\asw/Smart_Volume.c ****             decreament_volume_state = VOLUME__NormalDecreament; 
 383              		.loc 1 197 0
 384 00d4 0022     		movs	r2, #0
 385 00d6 0D4B     		ldr	r3, .L29
 386 00d8 9A70     		strb	r2, [r3, #2]
 387 00da 13E0     		b	.L21
 388              	.LVL22:
 389              	.L26:
 198:source\asw/Smart_Volume.c ****         }
 199:source\asw/Smart_Volume.c ****     }
 200:source\asw/Smart_Volume.c ****     else if(nextEvent &  ev_Button2)
 390              		.loc 1 200 0
 391 00dc 10F0020F 		tst	r0, #2
 392 00e0 10D0     		beq	.L21
 201:source\asw/Smart_Volume.c ****     {
 202:source\asw/Smart_Volume.c ****         decreament_volume_state = VOLUME__NormalDecreament;
 393              		.loc 1 202 0
 394 00e2 0A4B     		ldr	r3, .L29
 395 00e4 0022     		movs	r2, #0
 396 00e6 9A70     		strb	r2, [r3, #2]
 203:source\asw/Smart_Volume.c ****         if (m_volume > 0)
 397              		.loc 1 203 0
 398 00e8 5B78     		ldrb	r3, [r3, #1]	@ zero_extendqisi2
 399 00ea 5BB1     		cbz	r3, .L21
 204:source\asw/Smart_Volume.c ****         {
 205:source\asw/Smart_Volume.c ****         m_volume--;
 400              		.loc 1 205 0
 401 00ec 013B     		subs	r3, r3, #1
 402 00ee 074A     		ldr	r2, .L29
 403 00f0 5370     		strb	r3, [r2, #1]
 206:source\asw/Smart_Volume.c ****         CancelAlarm(alrm_1000ms);
 404              		.loc 1 206 0
 405 00f2 0220     		movs	r0, #2
 406              	.LVL23:
 407 00f4 FFF7FEFF 		bl	EE_oo_CancelAlarm
 408              	.LVL24:
 207:source\asw/Smart_Volume.c ****         SetRelAlarm(alrm_1000ms,1000,0);
 409              		.loc 1 207 0
 410 00f8 0022     		movs	r2, #0
 411 00fa 4FF47A71 		mov	r1, #1000
 412 00fe 0220     		movs	r0, #2
 413 0100 FFF7FEFF 		bl	EE_oo_SetRelAlarm
 414              	.LVL25:
 415              	.L21:
 208:source\asw/Smart_Volume.c ****         }
 209:source\asw/Smart_Volume.c ****         else if (m_volume == 0)
 210:source\asw/Smart_Volume.c ****         {
 211:source\asw/Smart_Volume.c ****             decreament_volume_state = VOLUME__NormalDecreament; 
 212:source\asw/Smart_Volume.c ****         }
ARM GAS  C:\Users\Reza\AppData\Local\Temp\cctB4AOj.s 			page 12


 213:source\asw/Smart_Volume.c ****     }
 214:source\asw/Smart_Volume.c ****     return m_volume;
 215:source\asw/Smart_Volume.c **** }...
 416              		.loc 1 215 0
 417 0104 014B     		ldr	r3, .L29
 418 0106 5878     		ldrb	r0, [r3, #1]	@ zero_extendqisi2
 419 0108 08BD     		pop	{r3, pc}
 420              	.L30:
 421 010a 00BF     		.align	2
 422              	.L29:
 423 010c 00000000 		.word	.LANCHOR0
 424              		.cfi_endproc
 425              	.LFE115:
 426              		.size	MP3__decreaseSmartVolume, .-MP3__decreaseSmartVolume
 427              		.bss
 428              		.set	.LANCHOR0,. + 0
 429              		.type	increament_volume_state.6818, %object
 430              		.size	increament_volume_state.6818, 1
 431              	increament_volume_state.6818:
 432 0000 00       		.space	1
 433              		.type	m_volume, %object
 434              		.size	m_volume, 1
 435              	m_volume:
 436 0001 00       		.space	1
 437              		.type	decreament_volume_state.6822, %object
 438              		.size	decreament_volume_state.6822, 1
 439              	decreament_volume_state.6822:
 440 0002 00       		.space	1
 441              		.text
 442              	.Letext0:
 443              		.file 2 "c:\\program files (x86)\\cypress\\psoc creator\\4.2\\psoc creator\\import\\gnu\\arm\\5.4.
 444              		.file 3 "c:\\program files (x86)\\cypress\\psoc creator\\4.2\\psoc creator\\import\\gnu\\arm\\5.4.
 445              		.file 4 "Generated_Source\\PSoC5/SimpleSystem_common_ee_types.inc"
 446              		.file 5 "Generated_Source\\PSoC5/SimpleSystem_cortex_mx_ee_cpu.inc"
 447              		.file 6 "Generated_Source\\PSoC5/SimpleSystem_ee_oo_common.inc"
 448              		.file 7 "source\\asw\\Smart_Volume.h"
 449              		.file 8 "Generated_Source\\PSoC5/SimpleSystem_ee_oo_intfunc.inc"
 450              		.file 9 "Generated_Source\\PSoC5/SimpleSystem_cortex_mx_ee_context.inc"
 451              		.file 10 "Generated_Source\\PSoC5/SimpleSystem_common_ee_primitives.inc"
 452              		.file 11 "Generated_Source\\PSoC5/cmsis_gcc.h"
 453              		.file 12 "Generated_Source\\PSoC5/core_cm3.h"
 454              		.file 13 "Generated_Source\\PSoC5/SimpleSystem_ee_oo_kernel.inc"